
Disassembly of section .init:

0000000000400280 <.init>:
  400280:	a9bf7bfd 	stp	x29, x30, [sp, #-16]!
  400284:	910003fd 	mov	x29, sp
  400288:	940000d2 	bl	4005d0 <.plt+0x330>
  40028c:	a8c17bfd 	ldp	x29, x30, [sp], #16
  400290:	d65f03c0 	ret
--
  400570:	a9bf7bfd 	stp	x29, x30, [sp, #-16]!
  400574:	d2800200 	mov	x0, #0x10                  	// #16
  400578:	910003fd 	mov	x29, sp
  40057c:	940157ab 	bl	456428 <fgetc+0x43018>
  400580:	53082000 	ubfx	w0, w0, #8, #1
  400584:	f0000481 	adrp	x1, 493000 <.got+0x24d0>
  400588:	a8c17bfd 	ldp	x29, x30, [sp], #16
  40058c:	39357020 	strb	w0, [x1, #3420]
  400590:	d65f03c0 	ret
--
  4005c0:	91304084 	add	x4, x4, #0xc10
  4005c4:	9400039b 	bl	401430 <main212+0x63c>
  4005c8:	97ffff5e 	bl	400340 <.plt+0xa0>
  4005cc:	14000223 	b	400e58 <main212+0x64>
  4005d0:	90000480 	adrp	x0, 490000 <fgetc+0x7cbf0>
  4005d4:	f947e800 	ldr	x0, [x0, #4048]
  4005d8:	b4000040 	cbz	x0, 4005e0 <.plt+0x340>
  4005dc:	d503201f 	nop
  4005e0:	d65f03c0 	ret
--
  4005f4:	91268021 	add	x1, x1, #0x9a0
  4005f8:	eb00003f 	cmp	x1, x0
  4005fc:	540000c0 	b.eq	400614 <.plt+0x374>  // b.none
  400600:	f00002a1 	adrp	x1, 457000 <fgetc+0x43bf0>
  400604:	f940bc21 	ldr	x1, [x1, #376]
  400608:	b4000061 	cbz	x1, 400614 <.plt+0x374>
  40060c:	aa0103f0 	mov	x16, x1
  400610:	d61f0200 	br	x16
  400614:	d65f03c0 	ret
--
  400634:	eb8107ff 	cmp	xzr, x1, asr #1
  400638:	9341fc21 	asr	x1, x1, #1
  40063c:	540000c0 	b.eq	400654 <.plt+0x3b4>  // b.none
  400640:	f00002a2 	adrp	x2, 457000 <fgetc+0x43bf0>
  400644:	f940c042 	ldr	x2, [x2, #384]
  400648:	b4000062 	cbz	x2, 400654 <.plt+0x3b4>
  40064c:	aa0203f0 	mov	x16, x2
  400650:	d61f0200 	br	x16
  400654:	d65f03c0 	ret
--
  40067c:	b4000080 	cbz	x0, 40068c <.plt+0x3ec>
  400680:	d0000380 	adrp	x0, 472000 <fgetc+0x5ebf0>
  400684:	9117a000 	add	x0, x0, #0x5e8
  400688:	940155c4 	bl	455d98 <fgetc+0x42988>
  40068c:	52800020 	mov	w0, #0x1                   	// #1
  400690:	393f6260 	strb	w0, [x19, #4056]
  400694:	f9400bf3 	ldr	x19, [sp, #16]
  400698:	a8c27bfd 	ldp	x29, x30, [sp], #32
  40069c:	d65f03c0 	ret
--
  4007a8:	f9400001 	ldr	x1, [x0]
  4007ac:	f94017e0 	ldr	x0, [sp, #40]
  4007b0:	f9000401 	str	x1, [x0, #8]
  4007b4:	f9400fe0 	ldr	x0, [sp, #24]
  4007b8:	f94017e1 	ldr	x1, [sp, #40]
  4007bc:	f9000001 	str	x1, [x0]
  4007c0:	d503201f 	nop
  4007c4:	a8c37bfd 	ldp	x29, x30, [sp], #48
  4007c8:	d65f03c0 	ret
--
  40080c:	f94017e0 	ldr	x0, [sp, #40]
  400810:	f9400401 	ldr	x1, [x0, #8]
  400814:	f9400fe0 	ldr	x0, [sp, #24]
  400818:	f9000001 	str	x1, [x0]
  40081c:	f94017e0 	ldr	x0, [sp, #40]
  400820:	9400733c 	bl	41d510 <fgetc+0xa100>
  400824:	fd4013e0 	ldr	d0, [sp, #32]
  400828:	a8c37bfd 	ldp	x29, x30, [sp], #48
  40082c:	d65f03c0 	ret
--
  40084c:	f94017e0 	ldr	x0, [sp, #40]
  400850:	97ffffdf 	bl	4007cc <pop>
  400854:	1e602900 	fadd	d0, d8, d0
  400858:	f94017e0 	ldr	x0, [sp, #40]
  40085c:	97ffffc8 	bl	40077c <push>
  400860:	d503201f 	nop
  400864:	fd400be8 	ldr	d8, [sp, #16]
  400868:	a8c37bfd 	ldp	x29, x30, [sp], #48
  40086c:	d65f03c0 	ret
--
  40088c:	f94017e0 	ldr	x0, [sp, #40]
  400890:	97ffffcf 	bl	4007cc <pop>
  400894:	1e603900 	fsub	d0, d8, d0
  400898:	f94017e0 	ldr	x0, [sp, #40]
  40089c:	97ffffb8 	bl	40077c <push>
  4008a0:	d503201f 	nop
  4008a4:	fd400be8 	ldr	d8, [sp, #16]
  4008a8:	a8c37bfd 	ldp	x29, x30, [sp], #48
  4008ac:	d65f03c0 	ret
--
  4008cc:	f94017e0 	ldr	x0, [sp, #40]
  4008d0:	97ffffbf 	bl	4007cc <pop>
  4008d4:	1e600900 	fmul	d0, d8, d0
  4008d8:	f94017e0 	ldr	x0, [sp, #40]
  4008dc:	97ffffa8 	bl	40077c <push>
  4008e0:	d503201f 	nop
  4008e4:	fd400be8 	ldr	d8, [sp, #16]
  4008e8:	a8c37bfd 	ldp	x29, x30, [sp], #48
  4008ec:	d65f03c0 	ret
--
  40090c:	f94017e0 	ldr	x0, [sp, #40]
  400910:	97ffffaf 	bl	4007cc <pop>
  400914:	1e601900 	fdiv	d0, d8, d0
  400918:	f94017e0 	ldr	x0, [sp, #40]
  40091c:	97ffff98 	bl	40077c <push>
  400920:	d503201f 	nop
  400924:	fd400be8 	ldr	d8, [sp, #16]
  400928:	a8c37bfd 	ldp	x29, x30, [sp], #48
  40092c:	d65f03c0 	ret
--
  400954:	1e604001 	fmov	d1, d0
  400958:	1e604100 	fmov	d0, d8
  40095c:	9400016b 	bl	400f08 <main212+0x114>
  400960:	f94017e0 	ldr	x0, [sp, #40]
  400964:	97ffff86 	bl	40077c <push>
  400968:	d503201f 	nop
  40096c:	fd400be8 	ldr	d8, [sp, #16]
  400970:	a8c37bfd 	ldp	x29, x30, [sp], #48
  400974:	d65f03c0 	ret
--
  400990:	fd4017e0 	ldr	d0, [sp, #40]
  400994:	f9400fe0 	ldr	x0, [sp, #24]
  400998:	97ffff79 	bl	40077c <push>
  40099c:	fd4017e0 	ldr	d0, [sp, #40]
  4009a0:	f9400fe0 	ldr	x0, [sp, #24]
  4009a4:	97ffff76 	bl	40077c <push>
  4009a8:	d503201f 	nop
  4009ac:	a8c37bfd 	ldp	x29, x30, [sp], #48
  4009b0:	d65f03c0 	ret
--
  4009c4:	97ffff82 	bl	4007cc <pop>
  4009c8:	fd0017e0 	str	d0, [sp, #40]
  4009cc:	fd4017e0 	ldr	d0, [sp, #40]
  4009d0:	f00002a0 	adrp	x0, 457000 <fgetc+0x43bf0>
  4009d4:	91076000 	add	x0, x0, #0x1d8
  4009d8:	940028c6 	bl	40acf0 <printf>
  4009dc:	d503201f 	nop
  4009e0:	a8c37bfd 	ldp	x29, x30, [sp], #48
  4009e4:	d65f03c0 	ret
--
  400a68:	f9400be0 	ldr	x0, [sp, #16]
  400a6c:	910043e1 	add	x1, sp, #0x10
  400a70:	94001a58 	bl	4073d0 <main212+0x65dc>
  400a74:	fd0013e0 	str	d0, [sp, #32]
  400a78:	fd4013e0 	ldr	d0, [sp, #32]
  400a7c:	f9400fe0 	ldr	x0, [sp, #24]
  400a80:	97ffff3f 	bl	40077c <push>
  400a84:	a8c37bfd 	ldp	x29, x30, [sp], #48
  400a88:	d65f03c0 	ret
--
  400c38:	aa0003e1 	mov	x1, x0
  400c3c:	f94017e0 	ldr	x0, [sp, #40]
  400c40:	97fffeb4 	bl	400710 <die>
  400c44:	3100067f 	cmn	w19, #0x1
  400c48:	1a9f07e0 	cset	w0, ne  // ne = any
  400c4c:	12001c00 	and	w0, w0, #0xff
  400c50:	a94153f3 	ldp	x19, x20, [sp, #16]
  400c54:	a8ca7bfd 	ldp	x29, x30, [sp], #160
  400c58:	d65f03c0 	ret
--
  400cac:	f94017e1 	ldr	x1, [sp, #40]
  400cb0:	f9400fe0 	ldr	x0, [sp, #24]
  400cb4:	97ffffbb 	bl	400ba0 <read_tok>
  400cb8:	7100001f 	cmp	w0, #0x0
  400cbc:	54ffff61 	b.ne	400ca8 <read_file+0x4c>  // b.any
  400cc0:	d503201f 	nop
  400cc4:	d503201f 	nop
  400cc8:	a8c37bfd 	ldp	x29, x30, [sp], #48
  400ccc:	d65f03c0 	ret
--
  400e34:	11000400 	add	w0, w0, #0x1
  400e38:	b9002fe0 	str	w0, [sp, #44]
  400e3c:	b9402fe1 	ldr	w1, [sp, #44]
  400e40:	b9401fe0 	ldr	w0, [sp, #28]
  400e44:	6b00003f 	cmp	w1, w0
  400e48:	54fffe6b 	b.lt	400e14 <main212+0x20>  // b.tstop
  400e4c:	52800000 	mov	w0, #0x0                   	// #0
  400e50:	a8c37bfd 	ldp	x29, x30, [sp], #48
  400e54:	d65f03c0 	ret
--
  400ee0:	913ea000 	add	x0, x0, #0xfa8
  400ee4:	f9000001 	str	x1, [x0]
  400ee8:	f94013a1 	ldr	x1, [x29, #32]
  400eec:	b9402fa0 	ldr	w0, [x29, #44]
  400ef0:	97ffffc1 	bl	400df4 <main212>
  400ef4:	910003bf 	mov	sp, x29
  400ef8:	f9400bf3 	ldr	x19, [sp, #16]
  400efc:	a8c37bfd 	ldp	x29, x30, [sp], #48
  400f00:	d65f03c0 	ret
--
  401074:	1e610823 	fmul	d3, d1, d1
  401078:	1e662821 	fadd	d1, d1, d6
  40107c:	1e630864 	fmul	d4, d3, d3
  401080:	1f420461 	fmadd	d1, d3, d2, d1
  401084:	1f400481 	fmadd	d1, d4, d0, d1
  401088:	34000444 	cbz	w4, 401110 <main212+0x31c>
  40108c:	9e670000 	fmov	d0, x0
  401090:	1f400020 	fmadd	d0, d1, d0, d0
  401094:	d65f03c0 	ret
--
  4010d8:	eb00007f 	cmp	x3, x0
  4010dc:	54000ae0 	b.eq	401238 <main212+0x444>  // b.none
  4010e0:	710ef43f 	cmp	w1, #0x3bd
  4010e4:	54000928 	b.hi	401208 <main212+0x414>  // b.pmore
  4010e8:	eb00007f 	cmp	x3, x0
  4010ec:	1e6e1002 	fmov	d2, #1.000000000000000000e+00
  4010f0:	54000be8 	b.hi	40126c <main212+0x478>  // b.pmore
  4010f4:	1e613840 	fsub	d0, d2, d1
  4010f8:	d65f03c0 	ret
--
  40121c:	52800000 	mov	w0, #0x0                   	// #0
  401220:	54fff761 	b.ne	40110c <main212+0x318>  // b.any
  401224:	14000059 	b	401388 <main212+0x594>
  401228:	d24d0084 	eor	x4, x4, #0x8000000000000
  40122c:	d2fffe00 	mov	x0, #0xfff0000000000000    	// #-4503599627370496
  401230:	eb04041f 	cmp	x0, x4, lsl #1
  401234:	540001c3 	b.cc	40126c <main212+0x478>  // b.lo, b.ul, b.last
  401238:	1e6e1000 	fmov	d0, #1.000000000000000000e+00
  40123c:	d65f03c0 	ret
  401240:	1e6e1000 	fmov	d0, #1.000000000000000000e+00
  401244:	7100001f 	cmp	w0, #0x0
  401248:	1e602860 	fadd	d0, d3, d0
  40124c:	1e614001 	fneg	d1, d0
  401250:	1e601c20 	fcsel	d0, d1, d0, ne  // ne = any
  401254:	d65f03c0 	ret
  401258:	d24d0063 	eor	x3, x3, #0x8000000000000
  40125c:	d2fffe00 	mov	x0, #0xfff0000000000000    	// #-4503599627370496
  401260:	1e6e1000 	fmov	d0, #1.000000000000000000e+00
  401264:	eb03041f 	cmp	x0, x3, lsl #1
  401268:	54fff162 	b.cs	401094 <main212+0x2a0>  // b.hs, b.nlast
  40126c:	1e622820 	fadd	d0, d1, d2
  401270:	d65f03c0 	ret
--
  4012ac:	92f00401 	mov	x1, #0x7fdfffffffffffff    	// #9214364837600034815
  4012b0:	eb01007f 	cmp	x3, x1
  4012b4:	2f00e400 	movi	d0, #0x0
  4012b8:	d37ffc00 	lsr	x0, x0, #63
  4012bc:	1a9f97e1 	cset	w1, hi  // hi = pmore
  4012c0:	6b00003f 	cmp	w1, w0
  4012c4:	54ffee81 	b.ne	401094 <main212+0x2a0>  // b.any
  4012c8:	1e610820 	fmul	d0, d1, d1
  4012cc:	d65f03c0 	ret
--
  401330:	d2efe000 	mov	x0, #0x7f00000000000000    	// #9151314442816847872
  401334:	1f420822 	fmadd	d2, d1, d2, d2
  401338:	9e670000 	fmov	d0, x0
  40133c:	1e600840 	fmul	d0, d2, d0
  401340:	14000034 	b	401410 <main212+0x61c>
  401344:	b6ffea84 	tbz	x4, #63, 401094 <main212+0x2a0>
  401348:	1e6e1001 	fmov	d1, #1.000000000000000000e+00
  40134c:	1e601820 	fdiv	d0, d1, d0
  401350:	d65f03c0 	ret
  401354:	d503201f 	nop
  401358:	f0000461 	adrp	x1, 490000 <fgetc+0x7cbf0>
  40135c:	f945e021 	ldr	x1, [x1, #3008]
  401360:	d53bd042 	mrs	x2, tpidr_el0
  401364:	b8216840 	str	w0, [x2, x1]
  401368:	d65f03c0 	ret
--
  4013d0:	1e621800 	fdiv	d0, d0, d2
  4013d4:	17ffffe1 	b	401358 <main212+0x564>
  4013d8:	1e602000 	fcmp	d0, d0
  4013dc:	1e603800 	fsub	d0, d0, d0
  4013e0:	1e601800 	fdiv	d0, d0, d0
  4013e4:	54000066 	b.vs	4013f0 <main212+0x5fc>
  4013e8:	52800420 	mov	w0, #0x21                  	// #33
  4013ec:	17ffffdb 	b	401358 <main212+0x564>
  4013f0:	d65f03c0 	ret
  4013f4:	d503201f 	nop
  4013f8:	1e602008 	fcmp	d0, #0.0
  4013fc:	54000040 	b.eq	401404 <main212+0x610>  // b.none
  401400:	d65f03c0 	ret
  401404:	52800440 	mov	w0, #0x22                  	// #34
  401408:	17ffffd4 	b	401358 <main212+0x564>
  40140c:	d503201f 	nop
  401410:	1e60c002 	fabs	d2, d0
  401414:	92f00200 	mov	x0, #0x7fefffffffffffff    	// #9218868437227405311
  401418:	9e670001 	fmov	d1, x0
  40141c:	1e612040 	fcmp	d2, d1
  401420:	5400004c 	b.gt	401428 <main212+0x634>
  401424:	d65f03c0 	ret
--
  4017ec:	2a0103f4 	mov	w20, w1
  4017f0:	2a0003f3 	mov	w19, w0
  4017f4:	52800021 	mov	w1, #0x1                   	// #1
  4017f8:	940088ca 	bl	423b20 <fgetc+0x10710>
  4017fc:	3100041f 	cmn	w0, #0x1
  401800:	54000080 	b.eq	401810 <main212+0xa1c>  // b.none
  401804:	a94153f3 	ldp	x19, x20, [sp, #16]
  401808:	a8cb7bfd 	ldp	x29, x30, [sp], #176
  40180c:	d65f03c0 	ret
--
  401a8c:	a94573fb 	ldp	x27, x28, [sp, #80]
  401a90:	f90000d4 	str	x20, [x6]
  401a94:	f9000020 	str	x0, [x1]
  401a98:	f9000060 	str	x0, [x3]
  401a9c:	a94153f3 	ldp	x19, x20, [sp, #16]
  401aa0:	f9024300 	str	x0, [x24, #1152]
  401aa4:	a94363f7 	ldp	x23, x24, [sp, #48]
  401aa8:	a8c87bfd 	ldp	x29, x30, [sp], #128
  401aac:	d65f03c0 	ret
--
  401b24:	aa1503fa 	mov	x26, x21
  401b28:	17ffff9c 	b	401998 <main212+0xba4>
  401b2c:	d503201f 	nop
  401b30:	d53bd041 	mrs	x1, tpidr_el0
  401b34:	f9400400 	ldr	x0, [x0, #8]
  401b38:	f9400021 	ldr	x1, [x1]
  401b3c:	f9400821 	ldr	x1, [x1, #16]
  401b40:	8b000020 	add	x0, x1, x0
  401b44:	d65f03c0 	ret
--
  401be8:	2a1403e0 	mov	w0, w20
  401bec:	d63f0060 	blr	x3
  401bf0:	eb1302ff 	cmp	x23, x19
  401bf4:	54ffff21 	b.ne	401bd8 <main212+0xde4>  // b.any
  401bf8:	a94153f3 	ldp	x19, x20, [sp, #16]
  401bfc:	a9425bf5 	ldp	x21, x22, [sp, #32]
  401c00:	a94363f7 	ldp	x23, x24, [sp, #48]
  401c04:	a8c47bfd 	ldp	x29, x30, [sp], #64
  401c08:	d65f03c0 	ret
--
  401c50:	54ffff81 	b.ne	401c40 <main212+0xe4c>  // b.any
  401c54:	a94153f3 	ldp	x19, x20, [sp, #16]
  401c58:	a8c27bfd 	ldp	x29, x30, [sp], #32
  401c5c:	1401553e 	b	457154 <fgetc+0x43d44>
  401c60:	f0000460 	adrp	x0, 490000 <fgetc+0x7cbf0>
  401c64:	f946e000 	ldr	x0, [x0, #3520]
  401c68:	d53bd041 	mrs	x1, tpidr_el0
  401c6c:	8b000020 	add	x0, x1, x0
  401c70:	d65f03c0 	ret
--
  401e80:	aa1403e1 	mov	x1, x20
  401e84:	97fffff1 	bl	401e48 <main212+0x1054>
  401e88:	f100001f 	cmp	x0, #0x0
  401e8c:	9a9f17f5 	cset	x21, eq  // eq = none
  401e90:	aa1503e0 	mov	x0, x21
  401e94:	a94153f3 	ldp	x19, x20, [sp, #16]
  401e98:	f94013f5 	ldr	x21, [sp, #32]
  401e9c:	a8c37bfd 	ldp	x29, x30, [sp], #48
  401ea0:	d65f03c0 	ret
--
  401f28:	cb0002a0 	sub	x0, x21, x0
  401f2c:	7100183f 	cmp	w1, #0x6
  401f30:	8b1302b5 	add	x21, x21, x19
  401f34:	9a8002b5 	csel	x21, x21, x0, eq  // eq = none
  401f38:	aa1503e0 	mov	x0, x21
  401f3c:	a94153f3 	ldp	x19, x20, [sp, #16]
  401f40:	f94013f5 	ldr	x21, [sp, #32]
  401f44:	a8c37bfd 	ldp	x29, x30, [sp], #48
  401f48:	d65f03c0 	ret
--
  401f54:	34fff9e0 	cbz	w0, 401e90 <main212+0x109c>
  401f58:	7100041f 	cmp	w0, #0x1
  401f5c:	540000e0 	b.eq	401f78 <main212+0x1184>  // b.none
  401f60:	d2800015 	mov	x21, #0x0                   	// #0
  401f64:	aa1503e0 	mov	x0, x21
  401f68:	a94153f3 	ldp	x19, x20, [sp, #16]
  401f6c:	f94013f5 	ldr	x21, [sp, #32]
  401f70:	a8c37bfd 	ldp	x29, x30, [sp], #48
  401f74:	d65f03c0 	ret
--
  4020b8:	f9400a80 	ldr	x0, [x20, #16]
  4020bc:	940072a1 	bl	41eb40 <fgetc+0xb730>
  4020c0:	35000080 	cbnz	w0, 4020d0 <main212+0x12dc>
  4020c4:	b9400a61 	ldr	w1, [x19, #8]
  4020c8:	b9400a80 	ldr	w0, [x20, #8]
  4020cc:	4b010000 	sub	w0, w0, w1
  4020d0:	a94153f3 	ldp	x19, x20, [sp, #16]
  4020d4:	a8c27bfd 	ldp	x29, x30, [sp], #32
  4020d8:	d65f03c0 	ret
--
  402140:	940078ac 	bl	4203f0 <fgetc+0xcfe0>
  402144:	91000400 	add	x0, x0, #0x1
  402148:	eb14001f 	cmp	x0, x20
  40214c:	54ffff23 	b.cc	402130 <main212+0x133c>  // b.lo, b.ul, b.last
  402150:	aa1503e0 	mov	x0, x21
  402154:	a94153f3 	ldp	x19, x20, [sp, #16]
  402158:	f94013f5 	ldr	x21, [sp, #32]
  40215c:	a8c37bfd 	ldp	x29, x30, [sp], #48
  402160:	d65f03c0 	ret
--
  402394:	910003bf 	mov	sp, x29
  402398:	aa1803e0 	mov	x0, x24
  40239c:	a94153f3 	ldp	x19, x20, [sp, #16]
  4023a0:	a9425bf5 	ldp	x21, x22, [sp, #32]
  4023a4:	a94363f7 	ldp	x23, x24, [sp, #48]
  4023a8:	a9446bf9 	ldp	x25, x26, [sp, #64]
  4023ac:	a94573fb 	ldp	x27, x28, [sp, #80]
  4023b0:	a8cc7bfd 	ldp	x29, x30, [sp], #192
  4023b4:	d65f03c0 	ret
--
  402f34:	910003bf 	mov	sp, x29
  402f38:	aa0403e0 	mov	x0, x4
  402f3c:	a94153f3 	ldp	x19, x20, [sp, #16]
  402f40:	a9425bf5 	ldp	x21, x22, [sp, #32]
  402f44:	a94363f7 	ldp	x23, x24, [sp, #48]
  402f48:	a9446bf9 	ldp	x25, x26, [sp, #64]
  402f4c:	a94573fb 	ldp	x27, x28, [sp, #80]
  402f50:	a8d47bfd 	ldp	x29, x30, [sp], #320
  402f54:	d65f03c0 	ret
--
  4032bc:	aa1303e0 	mov	x0, x19
  4032c0:	a9427bfd 	ldp	x29, x30, [sp, #32]
  4032c4:	a94353f3 	ldp	x19, x20, [sp, #48]
  4032c8:	a9445bf5 	ldp	x21, x22, [sp, #64]
  4032cc:	a94563f7 	ldp	x23, x24, [sp, #80]
  4032d0:	a9466bf9 	ldp	x25, x26, [sp, #96]
  4032d4:	a94773fb 	ldp	x27, x28, [sp, #112]
  4032d8:	9102c3ff 	add	sp, sp, #0xb0
  4032dc:	d65f03c0 	ret
--
  4036c4:	d2800002 	mov	x2, #0x0                   	// #0
  4036c8:	54006461 	b.ne	404354 <main212+0x3560>  // b.any
  4036cc:	a94153f3 	ldp	x19, x20, [sp, #16]
  4036d0:	a9425bf5 	ldp	x21, x22, [sp, #32]
  4036d4:	a94363f7 	ldp	x23, x24, [sp, #48]
  4036d8:	a9446bf9 	ldp	x25, x26, [sp, #64]
  4036dc:	a94573fb 	ldp	x27, x28, [sp, #80]
  4036e0:	a8d97bfd 	ldp	x29, x30, [sp], #400
  4036e4:	d65f03c0 	ret
--
  404930:	aa1903e0 	mov	x0, x25
  404934:	a9417bfd 	ldp	x29, x30, [sp, #16]
  404938:	a94253f3 	ldp	x19, x20, [sp, #32]
  40493c:	a9435bf5 	ldp	x21, x22, [sp, #48]
  404940:	a94463f7 	ldp	x23, x24, [sp, #64]
  404944:	a9456bf9 	ldp	x25, x26, [sp, #80]
  404948:	a94673fb 	ldp	x27, x28, [sp, #96]
  40494c:	910983ff 	add	sp, sp, #0x260
  404950:	d65f03c0 	ret
--
  404cbc:	7100041f 	cmp	w0, #0x1
  404cc0:	5400066c 	b.gt	404d8c <main212+0x3f98>
  404cc4:	aa1303e0 	mov	x0, x19
  404cc8:	a94153f3 	ldp	x19, x20, [sp, #16]
  404ccc:	a9425bf5 	ldp	x21, x22, [sp, #32]
  404cd0:	a94363f7 	ldp	x23, x24, [sp, #48]
  404cd4:	a9446bf9 	ldp	x25, x26, [sp, #64]
  404cd8:	a8c57bfd 	ldp	x29, x30, [sp], #80
  404cdc:	d65f03c0 	ret
--
  404d9c:	d2800c48 	mov	x8, #0x62                  	// #98
  404da0:	d4000001 	svc	#0x0
  404da4:	aa1303e0 	mov	x0, x19
  404da8:	a94153f3 	ldp	x19, x20, [sp, #16]
  404dac:	a9425bf5 	ldp	x21, x22, [sp, #32]
  404db0:	a94363f7 	ldp	x23, x24, [sp, #48]
  404db4:	a9446bf9 	ldp	x25, x26, [sp, #64]
  404db8:	a8c57bfd 	ldp	x29, x30, [sp], #80
  404dbc:	d65f03c0 	ret
--
  40513c:	f8297b5f 	str	xzr, [x26, x9, lsl #3]
  405140:	aa1a03e0 	mov	x0, x26
  405144:	a9427bfd 	ldp	x29, x30, [sp, #32]
  405148:	a94353f3 	ldp	x19, x20, [sp, #48]
  40514c:	a9445bf5 	ldp	x21, x22, [sp, #64]
  405150:	a94563f7 	ldp	x23, x24, [sp, #80]
  405154:	a9466bf9 	ldp	x25, x26, [sp, #96]
  405158:	9102c3ff 	add	sp, sp, #0xb0
  40515c:	d65f03c0 	ret
--
  4052d4:	aa1a03e0 	mov	x0, x26
  4052d8:	a9427bfd 	ldp	x29, x30, [sp, #32]
  4052dc:	a94353f3 	ldp	x19, x20, [sp, #48]
  4052e0:	a9445bf5 	ldp	x21, x22, [sp, #64]
  4052e4:	a94563f7 	ldp	x23, x24, [sp, #80]
  4052e8:	a9466bf9 	ldp	x25, x26, [sp, #96]
  4052ec:	a94773fb 	ldp	x27, x28, [sp, #112]
  4052f0:	9102c3ff 	add	sp, sp, #0xb0
  4052f4:	d65f03c0 	ret
--
  405404:	91000463 	add	x3, x3, #0x1
  405408:	eb03029f 	cmp	x20, x3
  40540c:	aa0503e4 	mov	x4, x5
  405410:	54fffe88 	b.hi	4053e0 <main212+0x45ec>  // b.pmore
  405414:	a94153f3 	ldp	x19, x20, [sp, #16]
  405418:	a9425bf5 	ldp	x21, x22, [sp, #32]
  40541c:	3900009f 	strb	wzr, [x4]
  405420:	a8c37bfd 	ldp	x29, x30, [sp], #48
  405424:	d65f03c0 	ret
--
  405440:	72a00de2 	movk	w2, #0x6f, lsl #16
  405444:	b8003482 	str	w2, [x4], #3
  405448:	f9403433 	ldr	x19, [x1, #104]
  40544c:	17ffffdb 	b	4053b8 <main212+0x45c4>
  405450:	a94153f3 	ldp	x19, x20, [sp, #16]
  405454:	a9425bf5 	ldp	x21, x22, [sp, #32]
  405458:	d2800000 	mov	x0, #0x0                   	// #0
  40545c:	a8c37bfd 	ldp	x29, x30, [sp], #48
  405460:	d65f03c0 	ret
--
  40555c:	39400001 	ldrb	w1, [x0]
  405560:	121e7a80 	and	w0, w20, #0xfffffffd
  405564:	7100003f 	cmp	w1, #0x0
  405568:	1a940014 	csel	w20, w0, w20, eq  // eq = none
  40556c:	2a1403e0 	mov	w0, w20
  405570:	a94153f3 	ldp	x19, x20, [sp, #16]
  405574:	f94013f5 	ldr	x21, [sp, #32]
  405578:	a8c67bfd 	ldp	x29, x30, [sp], #96
  40557c:	d65f03c0 	ret
--
  405720:	f9400a60 	ldr	x0, [x19, #16]
  405724:	97ffffed 	bl	4056d8 <main212+0x48e4>
  405728:	f9400660 	ldr	x0, [x19, #8]
  40572c:	97ffffeb 	bl	4056d8 <main212+0x48e4>
  405730:	aa1303e0 	mov	x0, x19
  405734:	f9400bf3 	ldr	x19, [sp, #16]
  405738:	a8c27bfd 	ldp	x29, x30, [sp], #32
  40573c:	14005f75 	b	41d510 <fgetc+0xa100>
  405740:	d65f03c0 	ret
--
  405794:	d1000673 	sub	x19, x19, #0x1
  405798:	97ffffd0 	bl	4056d8 <main212+0x48e4>
  40579c:	3100067f 	cmn	w19, #0x1
  4057a0:	54ffff81 	b.ne	405790 <main212+0x499c>  // b.any
  4057a4:	a94153f3 	ldp	x19, x20, [sp, #16]
  4057a8:	d2800000 	mov	x0, #0x0                   	// #0
  4057ac:	a9425bf5 	ldp	x21, x22, [sp, #32]
  4057b0:	a8c37bfd 	ldp	x29, x30, [sp], #48
  4057b4:	d65f03c0 	ret
--
  4057cc:	f8737a81 	ldr	x1, [x20, x19, lsl #3]
  4057d0:	f8337841 	str	x1, [x2, x19, lsl #3]
  4057d4:	d1000673 	sub	x19, x19, #0x1
  4057d8:	3100067f 	cmn	w19, #0x1
  4057dc:	54ffff81 	b.ne	4057cc <main212+0x49d8>  // b.any
  4057e0:	a94153f3 	ldp	x19, x20, [sp, #16]
  4057e4:	a9425bf5 	ldp	x21, x22, [sp, #32]
  4057e8:	a8c37bfd 	ldp	x29, x30, [sp], #48
  4057ec:	d65f03c0 	ret
  4057f0:	d2800400 	mov	x0, #0x20                  	// #32
  4057f4:	94005dd7 	bl	41cf50 <fgetc+0x9b40>
  4057f8:	b4fffd80 	cbz	x0, 4057a8 <main212+0x49b4>
  4057fc:	2900581f 	stp	wzr, w22, [x0]
  405800:	a9425bf5 	ldp	x21, x22, [sp, #32]
  405804:	a8c37bfd 	ldp	x29, x30, [sp], #48
  405808:	d65f03c0 	ret
--
  405b88:	2a1303e0 	mov	w0, w19
  405b8c:	a9407bfd 	ldp	x29, x30, [sp]
  405b90:	a94153f3 	ldp	x19, x20, [sp, #16]
  405b94:	a9425bf5 	ldp	x21, x22, [sp, #32]
  405b98:	a94363f7 	ldp	x23, x24, [sp, #48]
  405b9c:	a9446bf9 	ldp	x25, x26, [sp, #64]
  405ba0:	a94573fb 	ldp	x27, x28, [sp, #80]
  405ba4:	911f43ff 	add	sp, sp, #0x7d0
  405ba8:	d65f03c0 	ret
--
  406034:	f94002e1 	ldr	x1, [x23]
  406038:	eb010000 	subs	x0, x0, x1
  40603c:	d2800001 	mov	x1, #0x0                   	// #0
  406040:	540000c1 	b.ne	406058 <main212+0x5264>  // b.any
  406044:	a94153f3 	ldp	x19, x20, [sp, #16]
  406048:	a9425bf5 	ldp	x21, x22, [sp, #32]
  40604c:	f9401bf7 	ldr	x23, [sp, #48]
  406050:	a8c67bfd 	ldp	x29, x30, [sp], #96
  406054:	d65f03c0 	ret
--
  406078:	f2640c01 	ands	x1, x0, #0xf0000000
  40607c:	9260ec03 	and	x3, x0, #0xffffffff0fffffff
  406080:	ca416061 	eor	x1, x3, x1, lsr #24
  406084:	9a810000 	csel	x0, x0, x1, eq  // eq = none
  406088:	39400041 	ldrb	w1, [x2]
  40608c:	91000442 	add	x2, x2, #0x1
  406090:	92401c23 	and	x3, x1, #0xff
  406094:	35ffff01 	cbnz	w1, 406074 <main212+0x5280>
  406098:	d65f03c0 	ret
  40609c:	d2800000 	mov	x0, #0x0                   	// #0
  4060a0:	d65f03c0 	ret
--
  406124:	910003fd 	mov	x29, sp
  406128:	f9000bf3 	str	x19, [sp, #16]
  40612c:	aa0003f3 	mov	x19, x0
  406130:	350000c1 	cbnz	w1, 406148 <main212+0x5354>
  406134:	b900b261 	str	w1, [x19, #176]
  406138:	52800000 	mov	w0, #0x0                   	// #0
  40613c:	f9400bf3 	ldr	x19, [sp, #16]
  406140:	a8c27bfd 	ldp	x29, x30, [sp], #32
  406144:	d65f03c0 	ret
--
  406150:	52800000 	mov	w0, #0x0                   	// #0
  406154:	94000053 	bl	4062a0 <main212+0x54ac>
  406158:	7100001f 	cmp	w0, #0x0
  40615c:	52800000 	mov	w0, #0x0                   	// #0
  406160:	1a9f17e1 	cset	w1, eq  // eq = none
  406164:	b900b261 	str	w1, [x19, #176]
  406168:	f9400bf3 	ldr	x19, [sp, #16]
  40616c:	a8c27bfd 	ldp	x29, x30, [sp], #32
  406170:	d65f03c0 	ret
--
  40625c:	f94097e0 	ldr	x0, [sp, #296]
  406260:	f94000a1 	ldr	x1, [x5]
  406264:	eb010000 	subs	x0, x0, x1
  406268:	d2800001 	mov	x1, #0x0                   	// #0
  40626c:	54000181 	b.ne	40629c <main212+0x54a8>  // b.any
  406270:	2a0403e0 	mov	w0, w4
  406274:	f9400bf3 	ldr	x19, [sp, #16]
  406278:	a8d37bfd 	ldp	x29, x30, [sp], #304
  40627c:	d65f03c0 	ret
--
  4062e8:	54000448 	b.hi	406370 <main212+0x557c>  // b.pmore
  4062ec:	f945c484 	ldr	x4, [x4, #2952]
  4062f0:	f9404fe1 	ldr	x1, [sp, #152]
  4062f4:	f9400082 	ldr	x2, [x4]
  4062f8:	eb020021 	subs	x1, x1, x2
  4062fc:	d2800002 	mov	x2, #0x0                   	// #0
  406300:	54000461 	b.ne	40638c <main212+0x5598>  // b.any
  406304:	a8ca7bfd 	ldp	x29, x30, [sp], #160
  406308:	d65f03c0 	ret
--
  406778:	54001081 	b.ne	406988 <main212+0x5b94>  // b.any
  40677c:	910003bf 	mov	sp, x29
  406780:	a94153f3 	ldp	x19, x20, [sp, #16]
  406784:	a9425bf5 	ldp	x21, x22, [sp, #32]
  406788:	a94363f7 	ldp	x23, x24, [sp, #48]
  40678c:	a9446bf9 	ldp	x25, x26, [sp, #64]
  406790:	a94573fb 	ldp	x27, x28, [sp, #80]
  406794:	a8ca7bfd 	ldp	x29, x30, [sp], #160
  406798:	d65f03c0 	ret
--
  4069dc:	b40000b3 	cbz	x19, 4069f0 <main212+0x5bfc>
  4069e0:	79400260 	ldrh	w0, [x19]
  4069e4:	6b01001f 	cmp	w0, w1
  4069e8:	54ffff81 	b.ne	4069d8 <main212+0x5be4>  // b.any
  4069ec:	91000a73 	add	x19, x19, #0x2
  4069f0:	aa1303e0 	mov	x0, x19
  4069f4:	a94153f3 	ldp	x19, x20, [sp, #16]
  4069f8:	a8c47bfd 	ldp	x29, x30, [sp], #64
  4069fc:	d65f03c0 	ret
--
  406a60:	a9425bf5 	ldp	x21, x22, [sp, #32]
  406a64:	a94363f7 	ldp	x23, x24, [sp, #48]
  406a68:	17ffffe2 	b	4069f0 <main212+0x5bfc>
  406a6c:	aa1303e0 	mov	x0, x19
  406a70:	a94153f3 	ldp	x19, x20, [sp, #16]
  406a74:	a9425bf5 	ldp	x21, x22, [sp, #32]
  406a78:	a94363f7 	ldp	x23, x24, [sp, #48]
  406a7c:	a8c47bfd 	ldp	x29, x30, [sp], #64
  406a80:	d65f03c0 	ret
  406a84:	d2800013 	mov	x19, #0x0                   	// #0
  406a88:	aa1303e0 	mov	x0, x19
  406a8c:	a94153f3 	ldp	x19, x20, [sp, #16]
  406a90:	a8c47bfd 	ldp	x29, x30, [sp], #64
  406a94:	d65f03c0 	ret
--
  406da0:	d0000462 	adrp	x2, 494000 <.got+0x34d0>
  406da4:	d2800021 	mov	x1, #0x1                   	// #1
  406da8:	f9000001 	str	x1, [x0]
  406dac:	f9420041 	ldr	x1, [x2, #1024]
  406db0:	a94153f3 	ldp	x19, x20, [sp, #16]
  406db4:	91000421 	add	x1, x1, #0x1
  406db8:	a8c27bfd 	ldp	x29, x30, [sp], #32
  406dbc:	f9020041 	str	x1, [x2, #1024]
  406dc0:	d65f03c0 	ret
--
  406de4:	f9000265 	str	x5, [x19]
  406de8:	d2800021 	mov	x1, #0x1                   	// #1
  406dec:	910040a0 	add	x0, x5, #0x10
  406df0:	f90004a1 	str	x1, [x5, #8]
  406df4:	17ffffeb 	b	406da0 <main212+0x5fac>
  406df8:	d2800000 	mov	x0, #0x0                   	// #0
  406dfc:	a94153f3 	ldp	x19, x20, [sp, #16]
  406e00:	a8c27bfd 	ldp	x29, x30, [sp], #32
  406e04:	d65f03c0 	ret
--
  406ea0:	52800004 	mov	w4, #0x0                   	// #0
  406ea4:	7100041f 	cmp	w0, #0x1
  406ea8:	5400020c 	b.gt	406ee8 <main212+0x60f4>
  406eac:	2a0403e0 	mov	w0, w4
  406eb0:	a94153f3 	ldp	x19, x20, [sp, #16]
  406eb4:	a9425bf5 	ldp	x21, x22, [sp, #32]
  406eb8:	a94363f7 	ldp	x23, x24, [sp, #48]
  406ebc:	a8c47bfd 	ldp	x29, x30, [sp], #64
  406ec0:	d65f03c0 	ret
--
  406fa4:	d53bd042 	mrs	x2, tpidr_el0
  406fa8:	528002c3 	mov	w3, #0x16                  	// #22
  406fac:	d2800000 	mov	x0, #0x0                   	// #0
  406fb0:	b8216843 	str	w3, [x2, x1]
  406fb4:	a9425bf5 	ldp	x21, x22, [sp, #32]
  406fb8:	a94363f7 	ldp	x23, x24, [sp, #48]
  406fbc:	a9446bf9 	ldp	x25, x26, [sp, #64]
  406fc0:	a8c57bfd 	ldp	x29, x30, [sp], #80
  406fc4:	d65f03c0 	ret
--
  40710c:	7100035f 	cmp	w26, #0x0
  407110:	da800400 	cneg	x0, x0, ne  // ne = any
  407114:	35001383 	cbnz	w3, 407384 <main212+0x6590>
  407118:	a94153f3 	ldp	x19, x20, [sp, #16]
  40711c:	a9425bf5 	ldp	x21, x22, [sp, #32]
  407120:	a94363f7 	ldp	x23, x24, [sp, #48]
  407124:	a9446bf9 	ldp	x25, x26, [sp, #64]
  407128:	a8c57bfd 	ldp	x29, x30, [sp], #80
  40712c:	d65f03c0 	ret
--
  4075c8:	52800442 	mov	w2, #0x22                  	// #34
  4075cc:	a94153f3 	ldp	x19, x20, [sp, #16]
  4075d0:	b8206822 	str	w2, [x1, x0]
  4075d4:	1e610800 	fmul	d0, d0, d1
  4075d8:	a9425bf5 	ldp	x21, x22, [sp, #32]
  4075dc:	a94363f7 	ldp	x23, x24, [sp, #48]
  4075e0:	f94023f9 	ldr	x25, [sp, #64]
  4075e4:	a8c57bfd 	ldp	x29, x30, [sp], #80
  4075e8:	d65f03c0 	ret
--
  40786c:	f9000300 	str	x0, [x24]
  407870:	aa1403e0 	mov	x0, x20
  407874:	a94153f3 	ldp	x19, x20, [sp, #16]
  407878:	a9425bf5 	ldp	x21, x22, [sp, #32]
  40787c:	a94363f7 	ldp	x23, x24, [sp, #48]
  407880:	a9446bf9 	ldp	x25, x26, [sp, #64]
  407884:	a94573fb 	ldp	x27, x28, [sp, #80]
  407888:	a8c97bfd 	ldp	x29, x30, [sp], #144
  40788c:	d65f03c0 	ret
--
  40791c:	f8217b20 	str	x0, [x25, x1, lsl #3]
  407920:	aa1403e0 	mov	x0, x20
  407924:	a94153f3 	ldp	x19, x20, [sp, #16]
  407928:	a9425bf5 	ldp	x21, x22, [sp, #32]
  40792c:	a94363f7 	ldp	x23, x24, [sp, #48]
  407930:	a9446bf9 	ldp	x25, x26, [sp, #64]
  407934:	a94573fb 	ldp	x27, x28, [sp, #80]
  407938:	a8c97bfd 	ldp	x29, x30, [sp], #144
  40793c:	d65f03c0 	ret
--
  407ac8:	5400db21 	b.ne	40962c <main212+0x8838>  // b.any
  407acc:	a9407bfd 	ldp	x29, x30, [sp]
  407ad0:	a94153f3 	ldp	x19, x20, [sp, #16]
  407ad4:	a9425bf5 	ldp	x21, x22, [sp, #32]
  407ad8:	a94363f7 	ldp	x23, x24, [sp, #48]
  407adc:	a9446bf9 	ldp	x25, x26, [sp, #64]
  407ae0:	a94573fb 	ldp	x27, x28, [sp, #80]
  407ae4:	911203ff 	add	sp, sp, #0x480
  407ae8:	d65f03c0 	ret
--
  409830:	f9401fe0 	ldr	x0, [sp, #56]
  409834:	f9400281 	ldr	x1, [x20]
  409838:	eb010000 	subs	x0, x0, x1
  40983c:	d2800001 	mov	x1, #0x0                   	// #0
  409840:	54000321 	b.ne	4098a4 <main212+0x8ab0>  // b.any
  409844:	a94153f3 	ldp	x19, x20, [sp, #16]
  409848:	f94013f5 	ldr	x21, [sp, #32]
  40984c:	a8c47bfd 	ldp	x29, x30, [sp], #64
  409850:	d65f03c0 	ret
--
  4098c0:	ab060000 	adds	x0, x0, x6
  4098c4:	9a9f37e6 	cset	x6, cs  // cs = hs, nlast
  4098c8:	ab0000a0 	adds	x0, x5, x0
  4098cc:	f82468e0 	str	x0, [x7, x4]
  4098d0:	91002084 	add	x4, x4, #0x8
  4098d4:	9a8634c0 	cinc	x0, x6, cs  // cs = hs, nlast
  4098d8:	eb04007f 	cmp	x3, x4
  4098dc:	54fffee1 	b.ne	4098b8 <main212+0x8ac4>  // b.any
  4098e0:	d65f03c0 	ret
--
  4098f8:	54000120 	b.eq	40991c <main212+0x8b28>  // b.none
  4098fc:	f8627804 	ldr	x4, [x0, x2, lsl #3]
  409900:	f8627823 	ldr	x3, [x1, x2, lsl #3]
  409904:	d1000442 	sub	x2, x2, #0x1
  409908:	eb03009f 	cmp	x4, x3
  40990c:	54ffff40 	b.eq	4098f4 <main212+0x8b00>  // b.none
  409910:	12800000 	mov	w0, #0xffffffff            	// #-1
  409914:	5a809400 	cneg	w0, w0, hi  // hi = pmore
  409918:	d65f03c0 	ret
  40991c:	52800000 	mov	w0, #0x0                   	// #0
  409920:	d65f03c0 	ret
--
  409954:	9ac824a6 	lsr	x6, x5, x8
  409958:	aa060042 	orr	x2, x2, x6
  40995c:	f82478e2 	str	x2, [x7, x4, lsl #3]
  409960:	d1000484 	sub	x4, x4, #0x1
  409964:	b100049f 	cmn	x4, #0x1
  409968:	54ffff01 	b.ne	409948 <main212+0x8b54>  // b.any
  40996c:	9ac320a5 	lsl	x5, x5, x3
  409970:	f82478e5 	str	x5, [x7, x4, lsl #3]
  409974:	d65f03c0 	ret
--
  4099b8:	aa070084 	orr	x4, x4, x7
  4099bc:	f8257924 	str	x4, [x9, x5, lsl #3]
  4099c0:	910004a5 	add	x5, x5, #0x1
  4099c4:	eb05005f 	cmp	x2, x5
  4099c8:	54ffff01 	b.ne	4099a8 <main212+0x8bb4>  // b.any
  4099cc:	8b020d24 	add	x4, x9, x2, lsl #3
  4099d0:	9ac324c6 	lsr	x6, x6, x3
  4099d4:	f9000086 	str	x6, [x4]
  4099d8:	d65f03c0 	ret
--
  409a78:	910003bf 	mov	sp, x29
  409a7c:	aa0303e0 	mov	x0, x3
  409a80:	a94153f3 	ldp	x19, x20, [sp, #16]
  409a84:	a9425bf5 	ldp	x21, x22, [sp, #32]
  409a88:	a94363f7 	ldp	x23, x24, [sp, #48]
  409a8c:	a9446bf9 	ldp	x25, x26, [sp, #64]
  409a90:	a94573fb 	ldp	x27, x28, [sp, #80]
  409a94:	a8c97bfd 	ldp	x29, x30, [sp], #144
  409a98:	d65f03c0 	ret
--
  409e30:	9a8380c3 	csel	x3, x6, x3, hi  // hi = pmore
  409e34:	eb05001f 	cmp	x0, x5
  409e38:	f8227945 	str	x5, [x10, x2, lsl #3]
  409e3c:	9a9f97e0 	cset	x0, hi  // hi = pmore
  409e40:	b1000442 	adds	x2, x2, #0x1
  409e44:	8b448004 	add	x4, x0, x4, lsr #32
  409e48:	8b040060 	add	x0, x3, x4
  409e4c:	54fffda1 	b.ne	409e00 <main212+0x900c>  // b.any
  409e50:	d65f03c0 	ret
--
  409f08:	91000694 	add	x20, x20, #0x1
  409f0c:	eb1402bf 	cmp	x21, x20
  409f10:	91002273 	add	x19, x19, #0x8
  409f14:	54fffe61 	b.ne	409ee0 <main212+0x90ec>  // b.any
  409f18:	a94153f3 	ldp	x19, x20, [sp, #16]
  409f1c:	a9425bf5 	ldp	x21, x22, [sp, #32]
  409f20:	a94363f7 	ldp	x23, x24, [sp, #48]
  409f24:	a8c47bfd 	ldp	x29, x30, [sp], #64
  409f28:	d65f03c0 	ret
--
  409fec:	f8236a84 	str	x4, [x20, x3]
  409ff0:	f8737ac3 	ldr	x3, [x22, x19, lsl #3]
  409ff4:	9400a893 	bl	434240 <fgetc+0x20e30>
  409ff8:	f8357a80 	str	x0, [x20, x21, lsl #3]
  409ffc:	a94153f3 	ldp	x19, x20, [sp, #16]
  40a000:	a9425bf5 	ldp	x21, x22, [sp, #32]
  40a004:	a94363f7 	ldp	x23, x24, [sp, #48]
  40a008:	a8c87bfd 	ldp	x29, x30, [sp], #128
  40a00c:	d65f03c0 	ret
--
  40a1fc:	eb15001f 	cmp	x0, x21
  40a200:	54ffff41 	b.ne	40a1e8 <main212+0x93f4>  // b.any
  40a204:	a94153f3 	ldp	x19, x20, [sp, #16]
  40a208:	a9425bf5 	ldp	x21, x22, [sp, #32]
  40a20c:	a94363f7 	ldp	x23, x24, [sp, #48]
  40a210:	a9446bf9 	ldp	x25, x26, [sp, #64]
  40a214:	a94573fb 	ldp	x27, x28, [sp, #80]
  40a218:	a8c87bfd 	ldp	x29, x30, [sp], #128
  40a21c:	d65f03c0 	ret
--
  40a418:	91000694 	add	x20, x20, #0x1
  40a41c:	eb1402bf 	cmp	x21, x20
  40a420:	91002273 	add	x19, x19, #0x8
  40a424:	54fffe61 	b.ne	40a3f0 <main212+0x95fc>  // b.any
  40a428:	a94153f3 	ldp	x19, x20, [sp, #16]
  40a42c:	a9425bf5 	ldp	x21, x22, [sp, #32]
  40a430:	f9401bf7 	ldr	x23, [sp, #48]
  40a434:	a8c47bfd 	ldp	x29, x30, [sp], #64
  40a438:	d65f03c0 	ret
--
  40a4f8:	f8236aa4 	str	x4, [x21, x3]
  40a4fc:	f8737ae3 	ldr	x3, [x23, x19, lsl #3]
  40a500:	9400a750 	bl	434240 <fgetc+0x20e30>
  40a504:	f8367aa0 	str	x0, [x21, x22, lsl #3]
  40a508:	a94153f3 	ldp	x19, x20, [sp, #16]
  40a50c:	a9425bf5 	ldp	x21, x22, [sp, #32]
  40a510:	a94363f7 	ldp	x23, x24, [sp, #48]
  40a514:	a8c87bfd 	ldp	x29, x30, [sp], #128
  40a518:	d65f03c0 	ret
--
  40a6c4:	eb16001f 	cmp	x0, x22
  40a6c8:	54ffff41 	b.ne	40a6b0 <main212+0x98bc>  // b.any
  40a6cc:	a94153f3 	ldp	x19, x20, [sp, #16]
  40a6d0:	a9425bf5 	ldp	x21, x22, [sp, #32]
  40a6d4:	a94363f7 	ldp	x23, x24, [sp, #48]
  40a6d8:	a9446bf9 	ldp	x25, x26, [sp, #64]
  40a6dc:	a94573fb 	ldp	x27, x28, [sp, #80]
  40a6e0:	a8c87bfd 	ldp	x29, x30, [sp], #128
  40a6e4:	d65f03c0 	ret
--
  40a8ac:	f94017a0 	ldr	x0, [x29, #40]
  40a8b0:	f9400261 	ldr	x1, [x19]
  40a8b4:	eb010000 	subs	x0, x0, x1
  40a8b8:	d2800001 	mov	x1, #0x0                   	// #0
  40a8bc:	540003e1 	b.ne	40a938 <main212+0x9b44>  // b.any
  40a8c0:	910003bf 	mov	sp, x29
  40a8c4:	f9400bf3 	ldr	x19, [sp, #16]
  40a8c8:	a8c37bfd 	ldp	x29, x30, [sp], #48
  40a8cc:	d65f03c0 	ret
--
  40a95c:	9a9f37e6 	cset	x6, cs  // cs = hs, nlast
  40a960:	eb0000a7 	subs	x7, x5, x0
  40a964:	f8246907 	str	x7, [x8, x4]
  40a968:	eb0000bf 	cmp	x5, x0
  40a96c:	91002084 	add	x4, x4, #0x8
  40a970:	9a8624c0 	cinc	x0, x6, cc  // cc = lo, ul, last
  40a974:	eb04007f 	cmp	x3, x4
  40a978:	54fffec1 	b.ne	40a950 <main212+0x9b5c>  // b.any
  40a97c:	d65f03c0 	ret
--
  40a9e4:	eb05011f 	cmp	x8, x5
  40a9e8:	f8266967 	str	x7, [x11, x6]
  40a9ec:	9a832463 	cinc	x3, x3, cc  // cc = lo, ul, last
  40a9f0:	8b448004 	add	x4, x0, x4, lsr #32
  40a9f4:	910020c6 	add	x6, x6, #0x8
  40a9f8:	8b040060 	add	x0, x3, x4
  40a9fc:	eb06005f 	cmp	x2, x6
  40aa00:	54fffd01 	b.ne	40a9a0 <main212+0x9bac>  // b.any
  40aa04:	d65f03c0 	ret
  40aa08:	f9400000 	ldr	x0, [x0]
  40aa0c:	110ffc21 	add	w1, w1, #0x3ff
  40aa10:	530c2821 	ubfiz	w1, w1, #20, #11
  40aa14:	d360cc03 	ubfx	x3, x0, #32, #20
  40aa18:	2a030021 	orr	w1, w1, w3
  40aa1c:	2a027c21 	orr	w1, w1, w2, lsl #31
  40aa20:	b3607c20 	bfi	x0, x1, #32, #32
  40aa24:	9e670000 	fmov	d0, x0
  40aa28:	d65f03c0 	ret
--
  40ab00:	aa0a03f5 	mov	x21, x10
  40ab04:	d10006a4 	sub	x4, x21, #0x1
  40ab08:	eb04029f 	cmp	x20, x4
  40ab0c:	54fffb89 	b.ls	40aa7c <main212+0x9c88>  // b.plast
  40ab10:	a94153f3 	ldp	x19, x20, [sp, #16]
  40ab14:	aa1503e0 	mov	x0, x21
  40ab18:	a9425bf5 	ldp	x21, x22, [sp, #32]
  40ab1c:	a8c37bfd 	ldp	x29, x30, [sp], #48
  40ab20:	d65f03c0 	ret
--
  40ab94:	eb0a029f 	cmp	x20, x10
  40ab98:	54fffb43 	b.cc	40ab00 <main212+0x9d0c>  // b.lo, b.ul, b.last
  40ab9c:	eb0a029f 	cmp	x20, x10
  40aba0:	9a8a2295 	csel	x21, x20, x10, cs  // cs = hs, nlast
  40aba4:	aa1503e0 	mov	x0, x21
  40aba8:	a94153f3 	ldp	x19, x20, [sp, #16]
  40abac:	a9425bf5 	ldp	x21, x22, [sp, #32]
  40abb0:	a8c37bfd 	ldp	x29, x30, [sp], #48
  40abb4:	d65f03c0 	ret
--
  40acc8:	94000a00 	bl	40d4c8 <printf+0x27d8>
  40accc:	f94037e1 	ldr	x1, [sp, #104]
  40acd0:	f9400262 	ldr	x2, [x19]
  40acd4:	eb020021 	subs	x1, x1, x2
  40acd8:	d2800002 	mov	x2, #0x0                   	// #0
  40acdc:	54000081 	b.ne	40acec <fprintf+0xa4>  // b.any
  40ace0:	f9400bf3 	ldr	x19, [sp, #16]
  40ace4:	a8d27bfd 	ldp	x29, x30, [sp], #288
  40ace8:	d65f03c0 	ret
--
  40ad88:	940009d0 	bl	40d4c8 <printf+0x27d8>
  40ad8c:	f94037e1 	ldr	x1, [sp, #104]
  40ad90:	f9400262 	ldr	x2, [x19]
  40ad94:	eb020021 	subs	x1, x1, x2
  40ad98:	d2800002 	mov	x2, #0x0                   	// #0
  40ad9c:	54000081 	b.ne	40adac <printf+0xbc>  // b.any
  40ada0:	f9400bf3 	ldr	x19, [sp, #16]
  40ada4:	a8d37bfd 	ldp	x29, x30, [sp], #304
  40ada8:	d65f03c0 	ret
--
  40ae30:	940021da 	bl	413598 <fgetc+0x188>
  40ae34:	f94037e1 	ldr	x1, [sp, #104]
  40ae38:	f9400262 	ldr	x2, [x19]
  40ae3c:	eb020021 	subs	x1, x1, x2
  40ae40:	d2800002 	mov	x2, #0x0                   	// #0
  40ae44:	54000081 	b.ne	40ae54 <printf+0x164>  // b.any
  40ae48:	f9400bf3 	ldr	x19, [sp, #16]
  40ae4c:	a8d27bfd 	ldp	x29, x30, [sp], #288
  40ae50:	d65f03c0 	ret
--
  40aeb0:	0b010061 	add	w1, w3, w1
  40aeb4:	6b0300bf 	cmp	w5, w3
  40aeb8:	1a88a020 	csel	w0, w1, w8, ge  // ge = tcont
  40aebc:	f9000082 	str	x2, [x4]
  40aec0:	38401441 	ldrb	w1, [x2], #1
  40aec4:	5100c021 	sub	w1, w1, #0x30
  40aec8:	7100243f 	cmp	w1, #0x9
  40aecc:	54fffe69 	b.ls	40ae98 <printf+0x1a8>  // b.plast
  40aed0:	d65f03c0 	ret
--
  40af04:	12001c00 	and	w0, w0, #0xff
  40af08:	7103f41f 	cmp	w0, #0xfd
  40af0c:	540000e9 	b.ls	40af28 <printf+0x238>  // b.plast
  40af10:	aa1603e0 	mov	x0, x22
  40af14:	a94153f3 	ldp	x19, x20, [sp, #16]
  40af18:	a9425bf5 	ldp	x21, x22, [sp, #32]
  40af1c:	a94363f7 	ldp	x23, x24, [sp, #48]
  40af20:	a8c57bfd 	ldp	x29, x30, [sp], #80
  40af24:	d65f03c0 	ret
--
  40af98:	eb1502ff 	cmp	x23, x21
  40af9c:	54000103 	b.cc	40afbc <printf+0x2cc>  // b.lo, b.ul, b.last
  40afa0:	aa1603e0 	mov	x0, x22
  40afa4:	a94153f3 	ldp	x19, x20, [sp, #16]
  40afa8:	a9425bf5 	ldp	x21, x22, [sp, #32]
  40afac:	a94363f7 	ldp	x23, x24, [sp, #48]
  40afb0:	a9446bf9 	ldp	x25, x26, [sp, #64]
  40afb4:	a8c57bfd 	ldp	x29, x30, [sp], #80
  40afb8:	d65f03c0 	ret
--
  40b1dc:	54000741 	b.ne	40b2c4 <printf+0x5d4>  // b.any
  40b1e0:	aa1303e0 	mov	x0, x19
  40b1e4:	a9407bfd 	ldp	x29, x30, [sp]
  40b1e8:	a94153f3 	ldp	x19, x20, [sp, #16]
  40b1ec:	a9425bf5 	ldp	x21, x22, [sp, #32]
  40b1f0:	a94363f7 	ldp	x23, x24, [sp, #48]
  40b1f4:	a9446bf9 	ldp	x25, x26, [sp, #64]
  40b1f8:	9112c3ff 	add	sp, sp, #0x4b0
  40b1fc:	d65f03c0 	ret
--
  40b36c:	eb03003f 	cmp	x1, x3
  40b370:	540001a9 	b.ls	40b3a4 <printf+0x6b4>  // b.plast
  40b374:	91000461 	add	x1, x3, #0x1
  40b378:	f9001661 	str	x1, [x19, #40]
  40b37c:	39000074 	strb	w20, [x3]
  40b380:	a94153f3 	ldp	x19, x20, [sp, #16]
  40b384:	a9425bf5 	ldp	x21, x22, [sp, #32]
  40b388:	a8c57bfd 	ldp	x29, x30, [sp], #80
  40b38c:	d65f03c0 	ret
--
  40bb68:	2a1303e0 	mov	w0, w19
  40bb6c:	a9417bfd 	ldp	x29, x30, [sp, #16]
  40bb70:	a94253f3 	ldp	x19, x20, [sp, #32]
  40bb74:	a9435bf5 	ldp	x21, x22, [sp, #48]
  40bb78:	a94463f7 	ldp	x23, x24, [sp, #64]
  40bb7c:	a9456bf9 	ldp	x25, x26, [sp, #80]
  40bb80:	a94673fb 	ldp	x27, x28, [sp, #96]
  40bb84:	912643ff 	add	sp, sp, #0x990
  40bb88:	d65f03c0 	ret
--
  40d7f8:	2a1a03e0 	mov	w0, w26
  40d7fc:	a9437bfd 	ldp	x29, x30, [sp, #48]
  40d800:	a94453f3 	ldp	x19, x20, [sp, #64]
  40d804:	a9455bf5 	ldp	x21, x22, [sp, #80]
  40d808:	a94663f7 	ldp	x23, x24, [sp, #96]
  40d80c:	a9476bf9 	ldp	x25, x26, [sp, #112]
  40d810:	a94873fb 	ldp	x27, x28, [sp, #128]
  40d814:	911883ff 	add	sp, sp, #0x620
  40d818:	d65f03c0 	ret
--
  40fee0:	54000701 	b.ne	40ffc0 <printf+0x52d0>  // b.any
  40fee4:	2a1703e0 	mov	w0, w23
  40fee8:	d284300c 	mov	x12, #0x2180                	// #8576
  40feec:	a9407bfd 	ldp	x29, x30, [sp]
  40fef0:	a94153f3 	ldp	x19, x20, [sp, #16]
  40fef4:	a9425bf5 	ldp	x21, x22, [sp, #32]
  40fef8:	a94363f7 	ldp	x23, x24, [sp, #48]
  40fefc:	8b2c63ff 	add	sp, sp, x12
  40ff00:	d65f03c0 	ret
--
  410020:	0b030021 	add	w1, w1, w3
  410024:	6b0300bf 	cmp	w5, w3
  410028:	1a88a020 	csel	w0, w1, w8, ge  // ge = tcont
  41002c:	f9000082 	str	x2, [x4]
  410030:	38401441 	ldrb	w1, [x2], #1
  410034:	5100c021 	sub	w1, w1, #0x30
  410038:	7100243f 	cmp	w1, #0x9
  41003c:	54fffe69 	b.ls	410008 <printf+0x5318>  // b.plast
  410040:	d65f03c0 	ret
--
  410218:	f9000e60 	str	x0, [x19, #24]
  41021c:	528004a1 	mov	w1, #0x25                  	// #37
  410220:	9400407c 	bl	420410 <fgetc+0xd000>
  410224:	f9001260 	str	x0, [x19, #32]
  410228:	aa1503e0 	mov	x0, x21
  41022c:	a94153f3 	ldp	x19, x20, [sp, #16]
  410230:	f94013f5 	ldr	x21, [sp, #32]
  410234:	a8c47bfd 	ldp	x29, x30, [sp], #64
  410238:	d65f03c0 	ret
--
  4102c0:	f9401fe0 	ldr	x0, [sp, #56]
  4102c4:	35fffaa2 	cbnz	w2, 410218 <printf+0x5528>
  4102c8:	d1000400 	sub	x0, x0, #0x1
  4102cc:	a9018260 	stp	x0, x0, [x19, #24]
  4102d0:	aa1503e0 	mov	x0, x21
  4102d4:	a94153f3 	ldp	x19, x20, [sp, #16]
  4102d8:	f94013f5 	ldr	x21, [sp, #32]
  4102dc:	a8c47bfd 	ldp	x29, x30, [sp], #64
  4102e0:	d65f03c0 	ret
--
  41088c:	540007c1 	b.ne	410984 <printf+0x5c94>  // b.any
  410890:	910003bf 	mov	sp, x29
  410894:	2a1303e0 	mov	w0, w19
  410898:	a94153f3 	ldp	x19, x20, [sp, #16]
  41089c:	a9425bf5 	ldp	x21, x22, [sp, #32]
  4108a0:	a94363f7 	ldp	x23, x24, [sp, #48]
  4108a4:	f94023f9 	ldr	x25, [sp, #64]
  4108a8:	a8c97bfd 	ldp	x29, x30, [sp], #144
  4108ac:	d65f03c0 	ret
--
  410a30:	b9400660 	ldr	w0, [x19, #4]
  410a34:	51000400 	sub	w0, w0, #0x1
  410a38:	b9000660 	str	w0, [x19, #4]
  410a3c:	34000140 	cbz	w0, 410a64 <printf+0x5d74>
  410a40:	2a1403e0 	mov	w0, w20
  410a44:	a94153f3 	ldp	x19, x20, [sp, #16]
  410a48:	a9425bf5 	ldp	x21, x22, [sp, #32]
  410a4c:	a8c67bfd 	ldp	x29, x30, [sp], #96
  410a50:	d65f03c0 	ret
--
  410b20:	97ffff9a 	bl	410988 <printf+0x5c98>
  410b24:	f94037e1 	ldr	x1, [sp, #104]
  410b28:	f9400262 	ldr	x2, [x19]
  410b2c:	eb020021 	subs	x1, x1, x2
  410b30:	d2800002 	mov	x2, #0x0                   	// #0
  410b34:	54000081 	b.ne	410b44 <printf+0x5e54>  // b.any
  410b38:	f9400bf3 	ldr	x19, [sp, #16]
  410b3c:	a8d27bfd 	ldp	x29, x30, [sp], #288
  410b40:	d65f03c0 	ret
--
  410c6c:	f9400281 	ldr	x1, [x20]
  410c70:	eb010000 	subs	x0, x0, x1
  410c74:	d2800001 	mov	x1, #0x0                   	// #0
  410c78:	54000321 	b.ne	410cdc <printf+0x5fec>  // b.any
  410c7c:	2a1503e0 	mov	w0, w21
  410c80:	a94153f3 	ldp	x19, x20, [sp, #16]
  410c84:	a9425bf5 	ldp	x21, x22, [sp, #32]
  410c88:	a8d47bfd 	ldp	x29, x30, [sp], #320
  410c8c:	d65f03c0 	ret
--
  410e24:	54000060 	b.eq	410e30 <printf+0x6140>  // b.none
  410e28:	aa1303e0 	mov	x0, x19
  410e2c:	940031b9 	bl	41d510 <fgetc+0xa100>
  410e30:	2a1403e0 	mov	w0, w20
  410e34:	a94153f3 	ldp	x19, x20, [sp, #16]
  410e38:	a9425bf5 	ldp	x21, x22, [sp, #32]
  410e3c:	f9401bf7 	ldr	x23, [sp, #48]
  410e40:	a8c47bfd 	ldp	x29, x30, [sp], #64
  410e44:	d65f03c0 	ret
--
  411004:	b9400660 	ldr	w0, [x19, #4]
  411008:	51000400 	sub	w0, w0, #0x1
  41100c:	b9000660 	str	w0, [x19, #4]
  411010:	340000c0 	cbz	w0, 411028 <printf+0x6338>
  411014:	2a1403e0 	mov	w0, w20
  411018:	a94153f3 	ldp	x19, x20, [sp, #16]
  41101c:	f94013f5 	ldr	x21, [sp, #32]
  411020:	a8c37bfd 	ldp	x29, x30, [sp], #48
  411024:	d65f03c0 	ret
--
  4110dc:	7100003f 	cmp	w1, #0x0
  4110e0:	5400010d 	b.le	411100 <printf+0x6410>
  4110e4:	b0000401 	adrp	x1, 492000 <.got+0x14d0>
  4110e8:	912a4022 	add	x2, x1, #0xa90
  4110ec:	f9405003 	ldr	x3, [x0, #160]
  4110f0:	f9006c02 	str	x2, [x0, #216]
  4110f4:	912a4021 	add	x1, x1, #0xa90
  4110f8:	f9007061 	str	x1, [x3, #224]
  4110fc:	d65f03c0 	ret
--
  4111b8:	f9006e61 	str	x1, [x19, #216]
  4111bc:	912a4000 	add	x0, x0, #0xa90
  4111c0:	f9007040 	str	x0, [x2, #224]
  4111c4:	aa1503e0 	mov	x0, x21
  4111c8:	a94153f3 	ldp	x19, x20, [sp, #16]
  4111cc:	a9425bf5 	ldp	x21, x22, [sp, #32]
  4111d0:	f9401bf7 	ldr	x23, [sp, #48]
  4111d4:	a8c47bfd 	ldp	x29, x30, [sp], #64
  4111d8:	d65f03c0 	ret
--
  4111f4:	aa1303e0 	mov	x0, x19
  4111f8:	d2800015 	mov	x21, #0x0                   	// #0
  4111fc:	940030c5 	bl	41d510 <fgetc+0xa100>
  411200:	aa1503e0 	mov	x0, x21
  411204:	a94153f3 	ldp	x19, x20, [sp, #16]
  411208:	a9425bf5 	ldp	x21, x22, [sp, #32]
  41120c:	f9401bf7 	ldr	x23, [sp, #48]
  411210:	a8c47bfd 	ldp	x29, x30, [sp], #64
  411214:	d65f03c0 	ret
--
  4112fc:	51000400 	sub	w0, w0, #0x1
  411300:	b9000660 	str	w0, [x19, #4]
  411304:	34000140 	cbz	w0, 41132c <printf+0x663c>
  411308:	2a1503e0 	mov	w0, w21
  41130c:	a94153f3 	ldp	x19, x20, [sp, #16]
  411310:	a9425bf5 	ldp	x21, x22, [sp, #32]
  411314:	f9401bf7 	ldr	x23, [sp, #48]
  411318:	a8c47bfd 	ldp	x29, x30, [sp], #64
  41131c:	d65f03c0 	ret
--
  4114c0:	eb010000 	subs	x0, x0, x1
  4114c4:	d2800001 	mov	x1, #0x0                   	// #0
  4114c8:	54000481 	b.ne	411558 <printf+0x6868>  // b.any
  4114cc:	aa1603e0 	mov	x0, x22
  4114d0:	a94153f3 	ldp	x19, x20, [sp, #16]
  4114d4:	a9425bf5 	ldp	x21, x22, [sp, #32]
  4114d8:	a94363f7 	ldp	x23, x24, [sp, #48]
  4114dc:	a8c77bfd 	ldp	x29, x30, [sp], #112
  4114e0:	d65f03c0 	ret
--
  4117b4:	f94047e1 	ldr	x1, [sp, #136]
  4117b8:	f9400322 	ldr	x2, [x25]
  4117bc:	eb020021 	subs	x1, x1, x2
  4117c0:	d2800002 	mov	x2, #0x0                   	// #0
  4117c4:	54002001 	b.ne	411bc4 <printf+0x6ed4>  // b.any
  4117c8:	a94153f3 	ldp	x19, x20, [sp, #16]
  4117cc:	a9446bf9 	ldp	x25, x26, [sp, #64]
  4117d0:	a8c97bfd 	ldp	x29, x30, [sp], #144
  4117d4:	d65f03c0 	ret
--
  411cd0:	f9401fe1 	ldr	x1, [sp, #56]
  411cd4:	f9400282 	ldr	x2, [x20]
  411cd8:	eb020021 	subs	x1, x1, x2
  411cdc:	d2800002 	mov	x2, #0x0                   	// #0
  411ce0:	540002c1 	b.ne	411d38 <printf+0x7048>  // b.any
  411ce4:	a94153f3 	ldp	x19, x20, [sp, #16]
  411ce8:	a9425bf5 	ldp	x21, x22, [sp, #32]
  411cec:	a8c47bfd 	ldp	x29, x30, [sp], #64
  411cf0:	d65f03c0 	ret
--
  4120ac:	f94087e1 	ldr	x1, [sp, #264]
  4120b0:	f94002a2 	ldr	x2, [x21]
  4120b4:	eb020021 	subs	x1, x1, x2
  4120b8:	d2800002 	mov	x2, #0x0                   	// #0
  4120bc:	540022e1 	b.ne	412518 <printf+0x7828>  // b.any
  4120c0:	a94153f3 	ldp	x19, x20, [sp, #16]
  4120c4:	a9425bf5 	ldp	x21, x22, [sp, #32]
  4120c8:	a8d17bfd 	ldp	x29, x30, [sp], #272
  4120cc:	d65f03c0 	ret
--
  41254c:	f9400bf3 	ldr	x19, [sp, #16]
  412550:	f9407021 	ldr	x1, [x1, #224]
  412554:	a8c27bfd 	ldp	x29, x30, [sp], #32
  412558:	f9401021 	ldr	x1, [x1, #32]
  41255c:	aa0103f0 	mov	x16, x1
  412560:	d61f0200 	br	x16
  412564:	f9400bf3 	ldr	x19, [sp, #16]
  412568:	a8c27bfd 	ldp	x29, x30, [sp], #32
  41256c:	d65f03c0 	ret
--
  412638:	f945c681 	ldr	x1, [x20, #2952]
  41263c:	f9401fe2 	ldr	x2, [sp, #56]
  412640:	f9400023 	ldr	x3, [x1]
  412644:	eb030042 	subs	x2, x2, x3
  412648:	d2800003 	mov	x3, #0x0                   	// #0
  41264c:	54000501 	b.ne	4126ec <printf+0x79fc>  // b.any
  412650:	a94153f3 	ldp	x19, x20, [sp, #16]
  412654:	a8c47bfd 	ldp	x29, x30, [sp], #64
  412658:	d65f03c0 	ret
--
  412838:	f94047e1 	ldr	x1, [sp, #136]
  41283c:	f9400302 	ldr	x2, [x24]
  412840:	eb020021 	subs	x1, x1, x2
  412844:	d2800002 	mov	x2, #0x0                   	// #0
  412848:	540004e1 	b.ne	4128e4 <printf+0x7bf4>  // b.any
  41284c:	a94153f3 	ldp	x19, x20, [sp, #16]
  412850:	a94363f7 	ldp	x23, x24, [sp, #48]
  412854:	a8c97bfd 	ldp	x29, x30, [sp], #144
  412858:	d65f03c0 	ret
--
  4129b4:	9342fc42 	asr	x2, x2, #2
  4129b8:	97ffff50 	bl	4126f8 <printf+0x7a08>
  4129bc:	3100041f 	cmn	w0, #0x1
  4129c0:	1a9f17e0 	cset	w0, eq  // eq = none
  4129c4:	35000780 	cbnz	w0, 412ab4 <printf+0x7dc4>
  4129c8:	2a1403e0 	mov	w0, w20
  4129cc:	a94153f3 	ldp	x19, x20, [sp, #16]
  4129d0:	a8c27bfd 	ldp	x29, x30, [sp], #32
  4129d4:	d65f03c0 	ret
--
  4129f0:	d53bd043 	mrs	x3, tpidr_el0
  4129f4:	321b0042 	orr	w2, w2, #0x20
  4129f8:	b9000262 	str	w2, [x19]
  4129fc:	52800124 	mov	w4, #0x9                   	// #9
  412a00:	12800000 	mov	w0, #0xffffffff            	// #-1
  412a04:	a94153f3 	ldp	x19, x20, [sp, #16]
  412a08:	b8216864 	str	w4, [x3, x1]
  412a0c:	a8c27bfd 	ldp	x29, x30, [sp], #32
  412a10:	d65f03c0 	ret
--
  412aa0:	cb010042 	sub	x2, x2, x1
  412aa4:	94000ad3 	bl	4155f0 <fgetc+0x21e0>
  412aa8:	3100041f 	cmn	w0, #0x1
  412aac:	1a9f17e0 	cset	w0, eq  // eq = none
  412ab0:	34fff8c0 	cbz	w0, 4129c8 <printf+0x7cd8>
  412ab4:	12800000 	mov	w0, #0xffffffff            	// #-1
  412ab8:	a94153f3 	ldp	x19, x20, [sp, #16]
  412abc:	a8c27bfd 	ldp	x29, x30, [sp], #32
  412ac0:	d65f03c0 	ret
--
  412c3c:	f9000402 	str	x2, [x0, #8]
  412c40:	f9000a61 	str	x1, [x19, #16]
  412c44:	92800001 	mov	x1, #0xffffffffffffffff    	// #-1
  412c48:	52800000 	mov	w0, #0x0                   	// #0
  412c4c:	a9425bf5 	ldp	x21, x22, [sp, #32]
  412c50:	f9004a61 	str	x1, [x19, #144]
  412c54:	a94153f3 	ldp	x19, x20, [sp, #16]
  412c58:	a8c47bfd 	ldp	x29, x30, [sp], #64
  412c5c:	d65f03c0 	ret
--
  412cd0:	cb010042 	sub	x2, x2, x1
  412cd4:	94000a47 	bl	4155f0 <fgetc+0x21e0>
  412cd8:	7100001f 	cmp	w0, #0x0
  412cdc:	1a9f07e0 	cset	w0, ne  // ne = any
  412ce0:	34fff6e0 	cbz	w0, 412bbc <printf+0x7ecc>
  412ce4:	12800000 	mov	w0, #0xffffffff            	// #-1
  412ce8:	a94153f3 	ldp	x19, x20, [sp, #16]
  412cec:	a8c47bfd 	ldp	x29, x30, [sp], #64
  412cf0:	d65f03c0 	ret
--
  412dd8:	aa1603e0 	mov	x0, x22
  412ddc:	9342fc42 	asr	x2, x2, #2
  412de0:	97fffe46 	bl	4126f8 <printf+0x7a08>
  412de4:	aa1303e0 	mov	x0, x19
  412de8:	a94153f3 	ldp	x19, x20, [sp, #16]
  412dec:	a9425bf5 	ldp	x21, x22, [sp, #32]
  412df0:	a94363f7 	ldp	x23, x24, [sp, #48]
  412df4:	a8c47bfd 	ldp	x29, x30, [sp], #64
  412df8:	d65f03c0 	ret
--
  412e3c:	aa1403e2 	mov	x2, x20
  412e40:	aa1503e1 	mov	x1, x21
  412e44:	aa1603e0 	mov	x0, x22
  412e48:	9400b0e8 	bl	43f1e8 <fgetc+0x2bdd8>
  412e4c:	cb140014 	sub	x20, x0, x20
  412e50:	8b140273 	add	x19, x19, x20
  412e54:	17ffffdb 	b	412dc0 <printf+0x80d0>
  412e58:	d2800000 	mov	x0, #0x0                   	// #0
  412e5c:	d65f03c0 	ret
--
  412ec4:	f945c673 	ldr	x19, [x19, #2952]
  412ec8:	f9402fe1 	ldr	x1, [sp, #88]
  412ecc:	f9400262 	ldr	x2, [x19]
  412ed0:	eb020021 	subs	x1, x1, x2
  412ed4:	d2800002 	mov	x2, #0x0                   	// #0
  412ed8:	540005c1 	b.ne	412f90 <printf+0x82a0>  // b.any
  412edc:	a94153f3 	ldp	x19, x20, [sp, #16]
  412ee0:	a8c67bfd 	ldp	x29, x30, [sp], #96
  412ee4:	d65f03c0 	ret
--
  41309c:	eb020021 	subs	x1, x1, x2
  4130a0:	d2800002 	mov	x2, #0x0                   	// #0
  4130a4:	540001a1 	b.ne	4130d8 <printf+0x83e8>  // b.any
  4130a8:	a94153f3 	ldp	x19, x20, [sp, #16]
  4130ac:	a9425bf5 	ldp	x21, x22, [sp, #32]
  4130b0:	a94363f7 	ldp	x23, x24, [sp, #48]
  4130b4:	f94023f9 	ldr	x25, [sp, #64]
  4130b8:	a8c77bfd 	ldp	x29, x30, [sp], #112
  4130bc:	d65f03c0 	ret
--
  4131a4:	eb020021 	subs	x1, x1, x2
  4131a8:	d2800002 	mov	x2, #0x0                   	// #0
  4131ac:	540001a1 	b.ne	4131e0 <printf+0x84f0>  // b.any
  4131b0:	a94153f3 	ldp	x19, x20, [sp, #16]
  4131b4:	a9425bf5 	ldp	x21, x22, [sp, #32]
  4131b8:	a94363f7 	ldp	x23, x24, [sp, #48]
  4131bc:	f94023f9 	ldr	x25, [sp, #64]
  4131c0:	a8c77bfd 	ldp	x29, x30, [sp], #112
  4131c4:	d65f03c0 	ret
--
  4131e0:	94004908 	bl	425600 <fgetc+0x121f0>
  4131e4:	d503201f 	nop
  4131e8:	f9400000 	ldr	x0, [x0]
  4131ec:	b9405801 	ldr	w1, [x0, #88]
  4131f0:	350000a1 	cbnz	w1, 413204 <printf+0x8514>
  4131f4:	29490001 	ldp	w1, w0, [x0, #72]
  4131f8:	6b00003f 	cmp	w1, w0
  4131fc:	1a9f0000 	csel	w0, w0, wzr, eq  // eq = none
  413200:	d65f03c0 	ret
  413204:	12800000 	mov	w0, #0xffffffff            	// #-1
  413208:	d65f03c0 	ret
--
  4132f8:	d2800002 	mov	x2, #0x0                   	// #0
  4132fc:	cb140000 	sub	x0, x0, x20
  413300:	54000121 	b.ne	413324 <printf+0x8634>  // b.any
  413304:	910003bf 	mov	sp, x29
  413308:	a94153f3 	ldp	x19, x20, [sp, #16]
  41330c:	a9425bf5 	ldp	x21, x22, [sp, #32]
  413310:	a94363f7 	ldp	x23, x24, [sp, #48]
  413314:	a8c67bfd 	ldp	x29, x30, [sp], #96
  413318:	d65f03c0 	ret
--
  413388:	b94006a1 	ldr	w1, [x21, #4]
  41338c:	d3451414 	ubfx	x20, x0, #5, #1
  413390:	37780380 	tbnz	w0, #15, 413400 <printf+0x8710>
  413394:	340000c1 	cbz	w1, 4133ac <printf+0x86bc>
  413398:	f94013f5 	ldr	x21, [sp, #32]
  41339c:	2a1403e0 	mov	w0, w20
  4133a0:	a94153f3 	ldp	x19, x20, [sp, #16]
  4133a4:	a8c37bfd 	ldp	x29, x30, [sp], #48
  4133a8:	d65f03c0 	ret
--
  413498:	b9400660 	ldr	w0, [x19, #4]
  41349c:	51000400 	sub	w0, w0, #0x1
  4134a0:	b9000660 	str	w0, [x19, #4]
  4134a4:	34000220 	cbz	w0, 4134e8 <fgetc+0xd8>
  4134a8:	2a1403e0 	mov	w0, w20
  4134ac:	a94153f3 	ldp	x19, x20, [sp, #16]
  4134b0:	f94013f5 	ldr	x21, [sp, #32]
  4134b4:	a8c37bfd 	ldp	x29, x30, [sp], #48
  4134b8:	d65f03c0 	ret
--
  4134c4:	54000322 	b.cs	413528 <fgetc+0x118>  // b.hs, b.nlast
  4134c8:	91000420 	add	x0, x1, #0x1
  4134cc:	f9000660 	str	x0, [x19, #8]
  4134d0:	f94013f5 	ldr	x21, [sp, #32]
  4134d4:	39400034 	ldrb	w20, [x1]
  4134d8:	2a1403e0 	mov	w0, w20
  4134dc:	a94153f3 	ldp	x19, x20, [sp, #16]
  4134e0:	a8c37bfd 	ldp	x29, x30, [sp], #48
  4134e4:	d65f03c0 	ret
--
  4136cc:	d2800001 	mov	x1, #0x0                   	// #0
  4136d0:	54000261 	b.ne	41371c <fgetc+0x30c>  // b.any
  4136d4:	2a1303e0 	mov	w0, w19
  4136d8:	a94153f3 	ldp	x19, x20, [sp, #16]
  4136dc:	a9425bf5 	ldp	x21, x22, [sp, #32]
  4136e0:	a94363f7 	ldp	x23, x24, [sp, #48]
  4136e4:	f94023f9 	ldr	x25, [sp, #64]
  4136e8:	a8d77bfd 	ldp	x29, x30, [sp], #368
  4136ec:	d65f03c0 	ret
--
  413734:	910003fd 	mov	x29, sp
  413738:	a9401c86 	ldp	x6, x7, [x4]
  41373c:	a9011fe6 	stp	x6, x7, [sp, #16]
  413740:	910043e2 	add	x2, sp, #0x10
  413744:	a9411484 	ldp	x4, x5, [x4, #16]
  413748:	a90217e4 	stp	x4, x5, [sp, #32]
  41374c:	97ffff93 	bl	413598 <fgetc+0x188>
  413750:	a8c37bfd 	ldp	x29, x30, [sp], #48
  413754:	d65f03c0 	ret
--
  4139bc:	d2800001 	mov	x1, #0x0                   	// #0
  4139c0:	54000281 	b.ne	413a10 <fgetc+0x600>  // b.any
  4139c4:	910003bf 	mov	sp, x29
  4139c8:	a94153f3 	ldp	x19, x20, [sp, #16]
  4139cc:	a9425bf5 	ldp	x21, x22, [sp, #32]
  4139d0:	a94363f7 	ldp	x23, x24, [sp, #48]
  4139d4:	a9446bf9 	ldp	x25, x26, [sp, #64]
  4139d8:	a8cb7bfd 	ldp	x29, x30, [sp], #176
  4139dc:	d65f03c0 	ret
--
  413a34:	aa1303e1 	mov	x1, x19
  413a38:	52800020 	mov	w0, #0x1                   	// #1
  413a3c:	97ffff47 	bl	413758 <fgetc+0x348>
  413a40:	17fffffc 	b	413a30 <fgetc+0x620>
  413a44:	d503201f 	nop
  413a48:	b00003e0 	adrp	x0, 490000 <fgetc+0x7cbf0>
  413a4c:	f9470c00 	ldr	x0, [x0, #3608]
  413a50:	b4000040 	cbz	x0, 413a58 <fgetc+0x648>
  413a54:	d65f03c0 	ret
--
  413ac8:	b5000120 	cbnz	x0, 413aec <fgetc+0x6dc>
  413acc:	b9400266 	ldr	w6, [x19]
  413ad0:	d2800000 	mov	x0, #0x0                   	// #0
  413ad4:	2a060286 	orr	w6, w20, w6
  413ad8:	b9000266 	str	w6, [x19]
  413adc:	a94153f3 	ldp	x19, x20, [sp, #16]
  413ae0:	f94013f5 	ldr	x21, [sp, #32]
  413ae4:	a8c37bfd 	ldp	x29, x30, [sp], #48
  413ae8:	d65f03c0 	ret
--
  413b04:	b8626862 	ldr	w2, [x3, x2]
  413b08:	71002c5f 	cmp	w2, #0xb
  413b0c:	54fffe41 	b.ne	413ad4 <fgetc+0x6c4>  // b.any
  413b10:	38216abf 	strb	wzr, [x21, x1]
  413b14:	aa1503e0 	mov	x0, x21
  413b18:	b9400266 	ldr	w6, [x19]
  413b1c:	17ffffee 	b	413ad4 <fgetc+0x6c4>
  413b20:	d2800000 	mov	x0, #0x0                   	// #0
  413b24:	d65f03c0 	ret
--
  413b60:	54000129 	b.ls	413b84 <fgetc+0x774>  // b.plast
  413b64:	f9404283 	ldr	x3, [x20, #128]
  413b68:	aa1303e0 	mov	x0, x19
  413b6c:	d63f0060 	blr	x3
  413b70:	b7f80160 	tbnz	x0, #63, 413b9c <fgetc+0x78c>
  413b74:	f9004a60 	str	x0, [x19, #144]
  413b78:	a94153f3 	ldp	x19, x20, [sp, #16]
  413b7c:	a8c37bfd 	ldp	x29, x30, [sp], #48
  413b80:	d65f03c0 	ret
--
  413bc4:	b40000c0 	cbz	x0, 413bdc <fgetc+0x7cc>
  413bc8:	aa1303e0 	mov	x0, x19
  413bcc:	f9401e61 	ldr	x1, [x19, #56]
  413bd0:	a9008661 	stp	x1, x1, [x19, #8]
  413bd4:	a9018661 	stp	x1, x1, [x19, #24]
  413bd8:	a9028661 	stp	x1, x1, [x19, #40]
  413bdc:	f9400bf3 	ldr	x19, [sp, #16]
  413be0:	a8c27bfd 	ldp	x29, x30, [sp], #32
  413be4:	d65f03c0 	ret
--
  413c18:	b4000120 	cbz	x0, 413c3c <fgetc+0x82c>
  413c1c:	aa1303e0 	mov	x0, x19
  413c20:	f9401e61 	ldr	x1, [x19, #56]
  413c24:	a9008661 	stp	x1, x1, [x19, #8]
  413c28:	a9018661 	stp	x1, x1, [x19, #24]
  413c2c:	a9028661 	stp	x1, x1, [x19, #40]
  413c30:	a94153f3 	ldp	x19, x20, [sp, #16]
  413c34:	a8c27bfd 	ldp	x29, x30, [sp], #32
  413c38:	d65f03c0 	ret
--
  413cec:	5400012d 	b.le	413d10 <fgetc+0x900>
  413cf0:	f9402261 	ldr	x1, [x19, #64]
  413cf4:	f9001a61 	str	x1, [x19, #48]
  413cf8:	aa1603e0 	mov	x0, x22
  413cfc:	a94153f3 	ldp	x19, x20, [sp, #16]
  413d00:	a9425bf5 	ldp	x21, x22, [sp, #32]
  413d04:	a94363f7 	ldp	x23, x24, [sp, #48]
  413d08:	a8c47bfd 	ldp	x29, x30, [sp], #64
  413d0c:	d65f03c0 	ret
--
  413f38:	f9004a60 	str	x0, [x19, #144]
  413f3c:	f9400660 	ldr	x0, [x19, #8]
  413f40:	a9425bf5 	ldp	x21, x22, [sp, #32]
  413f44:	a94363f7 	ldp	x23, x24, [sp, #48]
  413f48:	a9446bf9 	ldp	x25, x26, [sp, #64]
  413f4c:	39400000 	ldrb	w0, [x0]
  413f50:	a94153f3 	ldp	x19, x20, [sp, #16]
  413f54:	a8c57bfd 	ldp	x29, x30, [sp], #80
  413f58:	d65f03c0 	ret
  413f5c:	39400020 	ldrb	w0, [x1]
  413f60:	a94153f3 	ldp	x19, x20, [sp, #16]
  413f64:	a8c57bfd 	ldp	x29, x30, [sp], #80
  413f68:	d65f03c0 	ret
--
  413f80:	a9446bf9 	ldp	x25, x26, [sp, #64]
  413f84:	f9004a62 	str	x2, [x19, #144]
  413f88:	321b0022 	orr	w2, w1, #0x20
  413f8c:	321c0021 	orr	w1, w1, #0x10
  413f90:	1a820021 	csel	w1, w1, w2, eq  // eq = none
  413f94:	b9000261 	str	w1, [x19]
  413f98:	a94153f3 	ldp	x19, x20, [sp, #16]
  413f9c:	a8c57bfd 	ldp	x29, x30, [sp], #80
  413fa0:	d65f03c0 	ret
--
  414264:	f94002a1 	ldr	x1, [x21]
  414268:	eb010000 	subs	x0, x0, x1
  41426c:	d2800001 	mov	x1, #0x0                   	// #0
  414270:	54000441 	b.ne	4142f8 <fgetc+0xee8>  // b.any
  414274:	2a1403e0 	mov	w0, w20
  414278:	a94153f3 	ldp	x19, x20, [sp, #16]
  41427c:	a9425bf5 	ldp	x21, x22, [sp, #32]
  414280:	a8cc7bfd 	ldp	x29, x30, [sp], #192
  414284:	d65f03c0 	ret
--
  414348:	eb01005f 	cmp	x2, x1
  41434c:	54000101 	b.ne	41436c <fgetc+0xf5c>  // b.any
  414350:	f9400e62 	ldr	x2, [x19, #24]
  414354:	52800000 	mov	w0, #0x0                   	// #0
  414358:	a9008a62 	stp	x2, x2, [x19, #8]
  41435c:	f9004a61 	str	x1, [x19, #144]
  414360:	f9400bf3 	ldr	x19, [sp, #16]
  414364:	a8c27bfd 	ldp	x29, x30, [sp], #32
  414368:	d65f03c0 	ret
--
  414418:	f9405fe1 	ldr	x1, [sp, #184]
  41441c:	f9400002 	ldr	x2, [x0]
  414420:	eb020021 	subs	x1, x1, x2
  414424:	d2800002 	mov	x2, #0x0                   	// #0
  414428:	54000881 	b.ne	414538 <fgetc+0x1128>  // b.any
  41442c:	a94153f3 	ldp	x19, x20, [sp, #16]
  414430:	f94013f5 	ldr	x21, [sp, #32]
  414434:	a8cc7bfd 	ldp	x29, x30, [sp], #192
  414438:	d65f03c0 	ret
--
  414908:	f9407fe1 	ldr	x1, [sp, #248]
  41490c:	f94002e2 	ldr	x2, [x23]
  414910:	eb020021 	subs	x1, x1, x2
  414914:	d2800002 	mov	x2, #0x0                   	// #0
  414918:	54001341 	b.ne	414b80 <fgetc+0x1770>  // b.any
  41491c:	a94153f3 	ldp	x19, x20, [sp, #16]
  414920:	a94363f7 	ldp	x23, x24, [sp, #48]
  414924:	a8d07bfd 	ldp	x29, x30, [sp], #256
  414928:	d65f03c0 	ret
--
  414bf8:	cb1302c0 	sub	x0, x22, x19
  414bfc:	a94153f3 	ldp	x19, x20, [sp, #16]
  414c00:	f9404aa1 	ldr	x1, [x21, #144]
  414c04:	b7f80061 	tbnz	x1, #63, 414c10 <fgetc+0x1800>
  414c08:	8b000021 	add	x1, x1, x0
  414c0c:	f9004aa1 	str	x1, [x21, #144]
  414c10:	a9425bf5 	ldp	x21, x22, [sp, #32]
  414c14:	a8c37bfd 	ldp	x29, x30, [sp], #48
  414c18:	d65f03c0 	ret
--
  414ca4:	321c0000 	orr	w0, w0, #0x10
  414ca8:	b9000280 	str	w0, [x20]
  414cac:	b50002d3 	cbnz	x19, 414d04 <fgetc+0x18f4>
  414cb0:	cb1802a0 	sub	x0, x21, x24
  414cb4:	a94153f3 	ldp	x19, x20, [sp, #16]
  414cb8:	a9425bf5 	ldp	x21, x22, [sp, #32]
  414cbc:	a94363f7 	ldp	x23, x24, [sp, #48]
  414cc0:	a8c47bfd 	ldp	x29, x30, [sp], #64
  414cc4:	d65f03c0 	ret
--
  414e4c:	f9004a60 	str	x0, [x19, #144]
  414e50:	b5fffb95 	cbnz	x21, 414dc0 <fgetc+0x19b0>
  414e54:	aa1703e0 	mov	x0, x23
  414e58:	a94153f3 	ldp	x19, x20, [sp, #16]
  414e5c:	a9425bf5 	ldp	x21, x22, [sp, #32]
  414e60:	a94363f7 	ldp	x23, x24, [sp, #48]
  414e64:	f94023f9 	ldr	x25, [sp, #64]
  414e68:	a8c67bfd 	ldp	x29, x30, [sp], #96
  414e6c:	d65f03c0 	ret
--
  414ef4:	321b0022 	orr	w2, w1, #0x20
  414ef8:	321c0021 	orr	w1, w1, #0x10
  414efc:	1a820021 	csel	w1, w1, w2, eq  // eq = none
  414f00:	b9000261 	str	w1, [x19]
  414f04:	a94153f3 	ldp	x19, x20, [sp, #16]
  414f08:	a94363f7 	ldp	x23, x24, [sp, #48]
  414f0c:	f94023f9 	ldr	x25, [sp, #64]
  414f10:	a8c67bfd 	ldp	x29, x30, [sp], #96
  414f14:	d65f03c0 	ret
--
  414f20:	3100041f 	cmn	w0, #0x1
  414f24:	54fff961 	b.ne	414e50 <fgetc+0x1a40>  // b.any
  414f28:	cb1502e0 	sub	x0, x23, x21
  414f2c:	a94153f3 	ldp	x19, x20, [sp, #16]
  414f30:	a9425bf5 	ldp	x21, x22, [sp, #32]
  414f34:	a94363f7 	ldp	x23, x24, [sp, #48]
  414f38:	f94023f9 	ldr	x25, [sp, #64]
  414f3c:	a8c67bfd 	ldp	x29, x30, [sp], #96
  414f40:	d65f03c0 	ret
--
  414f8c:	aa1703e0 	mov	x0, x23
  414f90:	a94363f7 	ldp	x23, x24, [sp, #48]
  414f94:	8b150035 	add	x21, x1, x21
  414f98:	f9000675 	str	x21, [x19, #8]
  414f9c:	a94153f3 	ldp	x19, x20, [sp, #16]
  414fa0:	a9425bf5 	ldp	x21, x22, [sp, #32]
  414fa4:	f94023f9 	ldr	x25, [sp, #64]
  414fa8:	a8c67bfd 	ldp	x29, x30, [sp], #96
  414fac:	d65f03c0 	ret
--
  415038:	b9400262 	ldr	w2, [x19]
  41503c:	f9000e60 	str	x0, [x19, #24]
  415040:	aa1403e0 	mov	x0, x20
  415044:	121b7842 	and	w2, w2, #0xffffffef
  415048:	b9000262 	str	w2, [x19]
  41504c:	f9004a61 	str	x1, [x19, #144]
  415050:	a94153f3 	ldp	x19, x20, [sp, #16]
  415054:	a8c37bfd 	ldp	x29, x30, [sp], #48
  415058:	d65f03c0 	ret
--
  415080:	8b000294 	add	x20, x20, x0
  415084:	17ffffd5 	b	414fd8 <fgetc+0x1bc8>
  415088:	a940d001 	ldp	x1, x20, [x0, #8]
  41508c:	f9404800 	ldr	x0, [x0, #144]
  415090:	cb010294 	sub	x20, x20, x1
  415094:	cb140000 	sub	x0, x0, x20
  415098:	a94153f3 	ldp	x19, x20, [sp, #16]
  41509c:	a8c37bfd 	ldp	x29, x30, [sp], #48
  4150a0:	d65f03c0 	ret
--
  4150c8:	92800000 	mov	x0, #0xffffffffffffffff    	// #-1
  4150cc:	f94013f5 	ldr	x21, [sp, #32]
  4150d0:	17ffffe0 	b	415050 <fgetc+0x1c40>
  4150d4:	d503201f 	nop
  4150d8:	a9408801 	ldp	x1, x2, [x0, #8]
  4150dc:	eb02003f 	cmp	x1, x2
  4150e0:	54000062 	b.cs	4150ec <fgetc+0x1cdc>  // b.hs, b.nlast
  4150e4:	39400020 	ldrb	w0, [x1]
  4150e8:	d65f03c0 	ret
--
  4150fc:	97fffc03 	bl	414108 <fgetc+0xcf8>
  415100:	35000100 	cbnz	w0, 415120 <fgetc+0x1d10>
  415104:	a9408660 	ldp	x0, x1, [x19, #8]
  415108:	eb01001f 	cmp	x0, x1
  41510c:	54000282 	b.cs	41515c <fgetc+0x1d4c>  // b.hs, b.nlast
  415110:	39400000 	ldrb	w0, [x0]
  415114:	a94153f3 	ldp	x19, x20, [sp, #16]
  415118:	a8c27bfd 	ldp	x29, x30, [sp], #32
  41511c:	d65f03c0 	ret
--
  415204:	ab1402ff 	cmn	x23, x20
  415208:	54000221 	b.ne	41524c <fgetc+0x1e3c>  // b.any
  41520c:	a9425bf5 	ldp	x21, x22, [sp, #32]
  415210:	cb140273 	sub	x19, x19, x20
  415214:	f9401bf7 	ldr	x23, [sp, #48]
  415218:	aa1303e0 	mov	x0, x19
  41521c:	a94153f3 	ldp	x19, x20, [sp, #16]
  415220:	a8c47bfd 	ldp	x29, x30, [sp], #64
  415224:	d65f03c0 	ret
--
  4152a4:	cb170297 	sub	x23, x20, x23
  4152a8:	b50001f7 	cbnz	x23, 4152e4 <fgetc+0x1ed4>
  4152ac:	b50002d4 	cbnz	x20, 415304 <fgetc+0x1ef4>
  4152b0:	aa1303e0 	mov	x0, x19
  4152b4:	a94153f3 	ldp	x19, x20, [sp, #16]
  4152b8:	a9425bf5 	ldp	x21, x22, [sp, #32]
  4152bc:	f9401bf7 	ldr	x23, [sp, #48]
  4152c0:	a8c47bfd 	ldp	x29, x30, [sp], #64
  4152c4:	d65f03c0 	ret
--
  415398:	2a020021 	orr	w1, w1, w2
  41539c:	92800014 	mov	x20, #0xffffffffffffffff    	// #-1
  4153a0:	b9000001 	str	w1, [x0]
  4153a4:	f9004814 	str	x20, [x0, #144]
  4153a8:	94000432 	bl	416470 <fgetc+0x3060>
  4153ac:	b9007274 	str	w20, [x19, #112]
  4153b0:	a94153f3 	ldp	x19, x20, [sp, #16]
  4153b4:	a8c27bfd 	ldp	x29, x30, [sp], #32
  4153b8:	d65f03c0 	ret
--
  4153d8:	2a020021 	orr	w1, w1, w2
  4153dc:	92800014 	mov	x20, #0xffffffffffffffff    	// #-1
  4153e0:	b9000001 	str	w1, [x0]
  4153e4:	f9004814 	str	x20, [x0, #144]
  4153e8:	94000422 	bl	416470 <fgetc+0x3060>
  4153ec:	b9007274 	str	w20, [x19, #112]
  4153f0:	a94153f3 	ldp	x19, x20, [sp, #16]
  4153f4:	a8c27bfd 	ldp	x29, x30, [sp], #32
  4153f8:	d65f03c0 	ret
--
  41549c:	b100041f 	cmn	x0, #0x1
  4154a0:	54000100 	b.eq	4154c0 <fgetc+0x20b0>  // b.none
  4154a4:	aa1303e0 	mov	x0, x19
  4154a8:	940003f2 	bl	416470 <fgetc+0x3060>
  4154ac:	aa1303e0 	mov	x0, x19
  4154b0:	a94153f3 	ldp	x19, x20, [sp, #16]
  4154b4:	f94013f5 	ldr	x21, [sp, #32]
  4154b8:	a8c37bfd 	ldp	x29, x30, [sp], #48
  4154bc:	d65f03c0 	ret
--
  4154d8:	2a1403e0 	mov	w0, w20
  4154dc:	94003953 	bl	423a28 <fgetc+0x10618>
  4154e0:	d2800000 	mov	x0, #0x0                   	// #0
  4154e4:	17fffff3 	b	4154b0 <fgetc+0x20a0>
  4154e8:	d2800000 	mov	x0, #0x0                   	// #0
  4154ec:	a94153f3 	ldp	x19, x20, [sp, #16]
  4154f0:	f94013f5 	ldr	x21, [sp, #32]
  4154f4:	a8c37bfd 	ldp	x29, x30, [sp], #48
  4154f8:	d65f03c0 	ret
--
  41559c:	b100041f 	cmn	x0, #0x1
  4155a0:	54000100 	b.eq	4155c0 <fgetc+0x21b0>  // b.none
  4155a4:	b8346ab7 	str	w23, [x21, x20]
  4155a8:	aa1303e0 	mov	x0, x19
  4155ac:	a94153f3 	ldp	x19, x20, [sp, #16]
  4155b0:	a9425bf5 	ldp	x21, x22, [sp, #32]
  4155b4:	f9401bf7 	ldr	x23, [sp, #48]
  4155b8:	a8c47bfd 	ldp	x29, x30, [sp], #64
  4155bc:	d65f03c0 	ret
  4155c0:	b8746aa0 	ldr	w0, [x21, x20]
  4155c4:	7100741f 	cmp	w0, #0x1d
  4155c8:	54fffee0 	b.eq	4155a4 <fgetc+0x2194>  // b.none
  4155cc:	a9425bf5 	ldp	x21, x22, [sp, #32]
  4155d0:	f9401bf7 	ldr	x23, [sp, #48]
  4155d4:	d2800000 	mov	x0, #0x0                   	// #0
  4155d8:	a94153f3 	ldp	x19, x20, [sp, #16]
  4155dc:	a8c47bfd 	ldp	x29, x30, [sp], #64
  4155e0:	d65f03c0 	ret
  4155e4:	97fff919 	bl	413a48 <fgetc+0x638>
  4155e8:	17ffffe7 	b	415584 <fgetc+0x2174>
  4155ec:	d503201f 	nop
  4155f0:	b5000062 	cbnz	x2, 4155fc <fgetc+0x21ec>
  4155f4:	52800000 	mov	w0, #0x0                   	// #0
  4155f8:	d65f03c0 	ret
--
  415600:	910003fd 	mov	x29, sp
  415604:	f9000bf3 	str	x19, [sp, #16]
  415608:	aa0203f3 	mov	x19, x2
  41560c:	97fff993 	bl	413c58 <fgetc+0x848>
  415610:	eb00027f 	cmp	x19, x0
  415614:	5a9f03e0 	csetm	w0, ne  // ne = any
  415618:	f9400bf3 	ldr	x19, [sp, #16]
  41561c:	a8c27bfd 	ldp	x29, x30, [sp], #32
  415620:	d65f03c0 	ret
--
  415728:	92800000 	mov	x0, #0xffffffffffffffff    	// #-1
  41572c:	f94013f5 	ldr	x21, [sp, #32]
  415730:	b9000262 	str	w2, [x19]
  415734:	b9007261 	str	w1, [x19, #112]
  415738:	f9004a60 	str	x0, [x19, #144]
  41573c:	2a1403e0 	mov	w0, w20
  415740:	a94153f3 	ldp	x19, x20, [sp, #16]
  415744:	a8c37bfd 	ldp	x29, x30, [sp], #48
  415748:	d65f03c0 	ret
--
  415808:	f9400261 	ldr	x1, [x19]
  41580c:	eb010000 	subs	x0, x0, x1
  415810:	d2800001 	mov	x1, #0x0                   	// #0
  415814:	54001b21 	b.ne	415b78 <fgetc+0x2768>  // b.any
  415818:	aa1503e0 	mov	x0, x21
  41581c:	a94153f3 	ldp	x19, x20, [sp, #16]
  415820:	a9425bf5 	ldp	x21, x22, [sp, #32]
  415824:	a8c77bfd 	ldp	x29, x30, [sp], #112
  415828:	d65f03c0 	ret
--
  415cd4:	b9400260 	ldr	w0, [x19]
  415cd8:	37080460 	tbnz	w0, #1, 415d64 <fgetc+0x2954>
  415cdc:	f277001f 	tst	x0, #0x200
  415ce0:	7a4a1a80 	ccmp	w20, #0xa, #0x0, ne  // ne = any
  415ce4:	54000400 	b.eq	415d64 <fgetc+0x2954>  // b.none
  415ce8:	12001e80 	and	w0, w20, #0xff
  415cec:	a94153f3 	ldp	x19, x20, [sp, #16]
  415cf0:	a8c37bfd 	ldp	x29, x30, [sp], #48
  415cf4:	d65f03c0 	ret
--
  415ef4:	540001e0 	b.eq	415f30 <fgetc+0x2b20>  // b.none
  415ef8:	f9400660 	ldr	x0, [x19, #8]
  415efc:	f9000a60 	str	x0, [x19, #16]
  415f00:	92800001 	mov	x1, #0xffffffffffffffff    	// #-1
  415f04:	52800000 	mov	w0, #0x0                   	// #0
  415f08:	f9004a61 	str	x1, [x19, #144]
  415f0c:	a94153f3 	ldp	x19, x20, [sp, #16]
  415f10:	a8c37bfd 	ldp	x29, x30, [sp], #48
  415f14:	d65f03c0 	ret
--
  415ff0:	b5ffff83 	cbnz	x3, 415fe0 <fgetc+0x2bd0>
  415ff4:	52800000 	mov	w0, #0x0                   	// #0
  415ff8:	a94153f3 	ldp	x19, x20, [sp, #16]
  415ffc:	a9425bf5 	ldp	x21, x22, [sp, #32]
  416000:	a94363f7 	ldp	x23, x24, [sp, #48]
  416004:	a9446bf9 	ldp	x25, x26, [sp, #64]
  416008:	a94573fb 	ldp	x27, x28, [sp, #80]
  41600c:	a8c77bfd 	ldp	x29, x30, [sp], #112
  416010:	d65f03c0 	ret
--
  416120:	36780121 	tbz	w1, #15, 416144 <fgetc+0x2d34>
  416124:	91264262 	add	x2, x19, #0x990
  416128:	b9401c40 	ldr	w0, [x2, #28]
  41612c:	51000400 	sub	w0, w0, #0x1
  416130:	b9001c40 	str	w0, [x2, #28]
  416134:	340002a0 	cbz	w0, 416188 <fgetc+0x2d78>
  416138:	a94153f3 	ldp	x19, x20, [sp, #16]
  41613c:	a8c27bfd 	ldp	x29, x30, [sp], #32
  416140:	d65f03c0 	ret
--
  416328:	f94002a1 	ldr	x1, [x21]
  41632c:	eb010000 	subs	x0, x0, x1
  416330:	d2800001 	mov	x1, #0x0                   	// #0
  416334:	54000921 	b.ne	416458 <fgetc+0x3048>  // b.any
  416338:	a94153f3 	ldp	x19, x20, [sp, #16]
  41633c:	a9425bf5 	ldp	x21, x22, [sp, #32]
  416340:	a94363f7 	ldp	x23, x24, [sp, #48]
  416344:	a8c77bfd 	ldp	x29, x30, [sp], #112
  416348:	d65f03c0 	ret
--
  41644c:	aa1803e0 	mov	x0, x24
  416450:	94000932 	bl	418918 <fgetc+0x5508>
  416454:	17ffff8d 	b	416288 <fgetc+0x2e78>
  416458:	94003c6a 	bl	425600 <fgetc+0x121f0>
  41645c:	d503201f 	nop
  416460:	b9400001 	ldr	w1, [x0]
  416464:	36380041 	tbz	w1, #7, 41646c <fgetc+0x305c>
  416468:	17ffff56 	b	4161c0 <fgetc+0x2db0>
  41646c:	d65f03c0 	ret
--
  4165f4:	f94037e1 	ldr	x1, [sp, #104]
  4165f8:	f9400002 	ldr	x2, [x0]
  4165fc:	eb020021 	subs	x1, x1, x2
  416600:	d2800002 	mov	x2, #0x0                   	// #0
  416604:	540004c1 	b.ne	41669c <fgetc+0x328c>  // b.any
  416608:	a94153f3 	ldp	x19, x20, [sp, #16]
  41660c:	a94363f7 	ldp	x23, x24, [sp, #48]
  416610:	a8c77bfd 	ldp	x29, x30, [sp], #112
  416614:	d65f03c0 	ret
--
  4166ac:	f9400c00 	ldr	x0, [x0, #24]
  4166b0:	cb000020 	sub	x0, x1, x0
  4166b4:	b40000c2 	cbz	x2, 4166cc <fgetc+0x32bc>
  4166b8:	b9801041 	ldrsw	x1, [x2, #16]
  4166bc:	f9400042 	ldr	x2, [x2]
  4166c0:	eb01001f 	cmp	x0, x1
  4166c4:	9a81d000 	csel	x0, x0, x1, le
  4166c8:	b5ffff82 	cbnz	x2, 4166b8 <fgetc+0x32a8>
  4166cc:	d65f03c0 	ret
--
  4166dc:	b9000001 	str	w1, [x0]
  4166e0:	f9402401 	ldr	x1, [x0, #72]
  4166e4:	f9000401 	str	x1, [x0, #8]
  4166e8:	f9402c04 	ldr	x4, [x0, #88]
  4166ec:	f9000804 	str	x4, [x0, #16]
  4166f0:	f9000c01 	str	x1, [x0, #24]
  4166f4:	f9002403 	str	x3, [x0, #72]
  4166f8:	f9002c02 	str	x2, [x0, #88]
  4166fc:	d65f03c0 	ret
--
  416708:	32180021 	orr	w1, w1, #0x100
  41670c:	b9000001 	str	w1, [x0]
  416710:	f9402401 	ldr	x1, [x0, #72]
  416714:	f9000c01 	str	x1, [x0, #24]
  416718:	f9402c01 	ldr	x1, [x0, #88]
  41671c:	a9008401 	stp	x1, x1, [x0, #8]
  416720:	f9002403 	str	x3, [x0, #72]
  416724:	f9002c02 	str	x2, [x0, #88]
  416728:	d65f03c0 	ret
--
  4167b0:	12147802 	and	w2, w0, #0xfffff7ff
  4167b4:	52800000 	mov	w0, #0x0                   	// #0
  4167b8:	b9000262 	str	w2, [x19]
  4167bc:	f9000661 	str	x1, [x19, #8]
  4167c0:	f9001261 	str	x1, [x19, #32]
  4167c4:	f9001a61 	str	x1, [x19, #48]
  4167c8:	a94153f3 	ldp	x19, x20, [sp, #16]
  4167cc:	a8c27bfd 	ldp	x29, x30, [sp], #32
  4167d0:	d65f03c0 	ret
--
  416818:	aa0203e0 	mov	x0, x2
  41681c:	f9402e61 	ldr	x1, [x19, #88]
  416820:	f9000a61 	str	x1, [x19, #16]
  416824:	94001b3b 	bl	41d510 <fgetc+0xa100>
  416828:	a904fe7f 	stp	xzr, xzr, [x19, #72]
  41682c:	f9002e7f 	str	xzr, [x19, #88]
  416830:	f9400bf3 	ldr	x19, [sp, #16]
  416834:	a8c27bfd 	ldp	x29, x30, [sp], #32
  416838:	d65f03c0 	ret
--
  416990:	17ffffed 	b	416944 <fgetc+0x3534>
  416994:	3100041f 	cmn	w0, #0x1
  416998:	54fffa40 	b.eq	4168e0 <fgetc+0x34d0>  // b.none
  41699c:	12800000 	mov	w0, #0xffffffff            	// #-1
  4169a0:	14000002 	b	4169a8 <fgetc+0x3598>
  4169a4:	39400000 	ldrb	w0, [x0]
  4169a8:	a94153f3 	ldp	x19, x20, [sp, #16]
  4169ac:	a8c27bfd 	ldp	x29, x30, [sp], #32
  4169b0:	d65f03c0 	ret
--
  4169b8:	97ffff5e 	bl	416730 <fgetc+0x3320>
  4169bc:	3100041f 	cmn	w0, #0x1
  4169c0:	54fff941 	b.ne	4168e8 <fgetc+0x34d8>  // b.any
  4169c4:	12800000 	mov	w0, #0xffffffff            	// #-1
  4169c8:	17fffff8 	b	4169a8 <fgetc+0x3598>
  4169cc:	39400040 	ldrb	w0, [x2]
  4169d0:	a94153f3 	ldp	x19, x20, [sp, #16]
  4169d4:	a8c27bfd 	ldp	x29, x30, [sp], #32
  4169d8:	d65f03c0 	ret
--
  416ac0:	54fffa40 	b.eq	416a08 <fgetc+0x35f8>  // b.none
  416ac4:	12800000 	mov	w0, #0xffffffff            	// #-1
  416ac8:	14000004 	b	416ad8 <fgetc+0x36c8>
  416acc:	91000401 	add	x1, x0, #0x1
  416ad0:	f9000661 	str	x1, [x19, #8]
  416ad4:	39400000 	ldrb	w0, [x0]
  416ad8:	a94153f3 	ldp	x19, x20, [sp, #16]
  416adc:	a8c27bfd 	ldp	x29, x30, [sp], #32
  416ae0:	d65f03c0 	ret
--
  416af0:	54fff901 	b.ne	416a10 <fgetc+0x3600>  // b.any
  416af4:	12800000 	mov	w0, #0xffffffff            	// #-1
  416af8:	17fffff8 	b	416ad8 <fgetc+0x36c8>
  416afc:	91000440 	add	x0, x2, #0x1
  416b00:	f9000660 	str	x0, [x19, #8]
  416b04:	a94153f3 	ldp	x19, x20, [sp, #16]
  416b08:	39400040 	ldrb	w0, [x2]
  416b0c:	a8c27bfd 	ldp	x29, x30, [sp], #32
  416b10:	d65f03c0 	ret
--
  416b54:	121f7880 	and	w0, w4, #0xfffffffe
  416b58:	32000084 	orr	w4, w4, #0x1
  416b5c:	a903d275 	stp	x21, x20, [x19, #56]
  416b60:	1a800084 	csel	w4, w4, w0, eq  // eq = none
  416b64:	b9000264 	str	w4, [x19]
  416b68:	a94153f3 	ldp	x19, x20, [sp, #16]
  416b6c:	a9425bf5 	ldp	x21, x22, [sp, #32]
  416b70:	a8c37bfd 	ldp	x29, x30, [sp], #48
  416b74:	d65f03c0 	ret
--
  416b88:	a9bd7bfd 	stp	x29, x30, [sp, #-48]!
  416b8c:	910003fd 	mov	x29, sp
  416b90:	a90153f3 	stp	x19, x20, [sp, #16]
  416b94:	aa0003f3 	mov	x19, x0
  416b98:	f9401c00 	ldr	x0, [x0, #56]
  416b9c:	b4000080 	cbz	x0, 416bac <fgetc+0x379c>
  416ba0:	a94153f3 	ldp	x19, x20, [sp, #16]
  416ba4:	a8c37bfd 	ldp	x29, x30, [sp], #48
  416ba8:	d65f03c0 	ret
--
  416c0c:	b4000040 	cbz	x0, 416c14 <fgetc+0x3804>
  416c10:	360001e1 	tbz	w1, #0, 416c4c <fgetc+0x383c>
  416c14:	32000021 	orr	w1, w1, #0x1
  416c18:	b9000261 	str	w1, [x19]
  416c1c:	a903d275 	stp	x21, x20, [x19, #56]
  416c20:	a94153f3 	ldp	x19, x20, [sp, #16]
  416c24:	f94013f5 	ldr	x21, [sp, #32]
  416c28:	a8c37bfd 	ldp	x29, x30, [sp], #48
  416c2c:	d65f03c0 	ret
  416c30:	a94153f3 	ldp	x19, x20, [sp, #16]
  416c34:	f94013f5 	ldr	x21, [sp, #32]
  416c38:	a8c37bfd 	ldp	x29, x30, [sp], #48
  416c3c:	d65f03c0 	ret
--
  416c44:	91021274 	add	x20, x19, #0x84
  416c48:	17fffff3 	b	416c14 <fgetc+0x3804>
  416c4c:	94001a31 	bl	41d510 <fgetc+0xa100>
  416c50:	b9400261 	ldr	w1, [x19]
  416c54:	17fffff0 	b	416c14 <fgetc+0x3804>
  416c58:	97fff37c 	bl	413a48 <fgetc+0x638>
  416c5c:	17ffffe3 	b	416be8 <fgetc+0x37d8>
  416c60:	12800000 	mov	w0, #0xffffffff            	// #-1
  416c64:	d65f03c0 	ret
--
  416ca8:	3100041f 	cmn	w0, #0x1
  416cac:	540000a0 	b.eq	416cc0 <fgetc+0x38b0>  // b.none
  416cb0:	f9400660 	ldr	x0, [x19, #8]
  416cb4:	91000401 	add	x1, x0, #0x1
  416cb8:	f9000661 	str	x1, [x19, #8]
  416cbc:	39400000 	ldrb	w0, [x0]
  416cc0:	a94153f3 	ldp	x19, x20, [sp, #16]
  416cc4:	a8c27bfd 	ldp	x29, x30, [sp], #32
  416cc8:	d65f03c0 	ret
--
  416db8:	17ffffe2 	b	416d40 <fgetc+0x3930>
  416dbc:	cb150339 	sub	x25, x25, x21
  416dc0:	aa1903e0 	mov	x0, x25
  416dc4:	a94153f3 	ldp	x19, x20, [sp, #16]
  416dc8:	a9425bf5 	ldp	x21, x22, [sp, #32]
  416dcc:	a94363f7 	ldp	x23, x24, [sp, #48]
  416dd0:	f94023f9 	ldr	x25, [sp, #64]
  416dd4:	a8c57bfd 	ldp	x29, x30, [sp], #80
  416dd8:	d65f03c0 	ret
  416ddc:	97fff31b 	bl	413a48 <fgetc+0x638>
  416de0:	17ffffdd 	b	416d54 <fgetc+0x3944>
  416de4:	d2800000 	mov	x0, #0x0                   	// #0
  416de8:	d65f03c0 	ret
--
  416ebc:	3100041f 	cmn	w0, #0x1
  416ec0:	54fffe41 	b.ne	416e88 <fgetc+0x3a78>  // b.any
  416ec4:	cb1502d6 	sub	x22, x22, x21
  416ec8:	aa1603e0 	mov	x0, x22
  416ecc:	a94153f3 	ldp	x19, x20, [sp, #16]
  416ed0:	a9425bf5 	ldp	x21, x22, [sp, #32]
  416ed4:	f9401bf7 	ldr	x23, [sp, #48]
  416ed8:	a8c47bfd 	ldp	x29, x30, [sp], #64
  416edc:	d65f03c0 	ret
--
  416fc4:	a903d275 	stp	x21, x20, [x19, #56]
  416fc8:	aa1303e0 	mov	x0, x19
  416fcc:	a900fe7f 	stp	xzr, xzr, [x19, #8]
  416fd0:	a901fe7f 	stp	xzr, xzr, [x19, #24]
  416fd4:	a902fe7f 	stp	xzr, xzr, [x19, #40]
  416fd8:	a94153f3 	ldp	x19, x20, [sp, #16]
  416fdc:	a9425bf5 	ldp	x21, x22, [sp, #32]
  416fe0:	a8c37bfd 	ldp	x29, x30, [sp], #48
  416fe4:	d65f03c0 	ret
--
  4170e4:	36000121 	tbz	w1, #0, 417108 <fgetc+0x3cf8>
  4170e8:	121f7821 	and	w1, w1, #0xfffffffe
  4170ec:	b9000261 	str	w1, [x19]
  4170f0:	a903d674 	stp	x20, x21, [x19, #56]
  4170f4:	52800020 	mov	w0, #0x1                   	// #1
  4170f8:	a94153f3 	ldp	x19, x20, [sp, #16]
  4170fc:	f94013f5 	ldr	x21, [sp, #32]
  417100:	a8c37bfd 	ldp	x29, x30, [sp], #48
  417104:	d65f03c0 	ret
  417108:	94001902 	bl	41d510 <fgetc+0xa100>
  41710c:	b9400261 	ldr	w1, [x19]
  417110:	17fffff6 	b	4170e8 <fgetc+0x3cd8>
  417114:	12800000 	mov	w0, #0xffffffff            	// #-1
  417118:	a94153f3 	ldp	x19, x20, [sp, #16]
  41711c:	a8c37bfd 	ldp	x29, x30, [sp], #48
  417120:	d65f03c0 	ret
--
  417144:	f9403420 	ldr	x0, [x1, #104]
  417148:	b40000e0 	cbz	x0, 417164 <fgetc+0x3d54>
  41714c:	d503201f 	nop
  417150:	b9407401 	ldr	w1, [x0, #116]
  417154:	32190021 	orr	w1, w1, #0x80
  417158:	b9007401 	str	w1, [x0, #116]
  41715c:	f9403400 	ldr	x0, [x0, #104]
  417160:	b5ffff80 	cbnz	x0, 417150 <fgetc+0x3d40>
  417164:	d65f03c0 	ret
--
  417198:	a903fc1f 	stp	xzr, xzr, [x0, #56]
  41719c:	a904fc1f 	stp	xzr, xzr, [x0, #72]
  4171a0:	a905fc1f 	stp	xzr, xzr, [x0, #88]
  4171a4:	f900341f 	str	xzr, [x0, #104]
  4171a8:	b9007402 	str	w2, [x0, #116]
  4171ac:	7901001f 	strh	wzr, [x0, #128]
  4171b0:	b4000043 	cbz	x3, 4171b8 <fgetc+0x3da8>
  4171b4:	a9007c7f 	stp	xzr, xzr, [x3]
  4171b8:	d65f03c0 	ret
--
  4171c4:	a9bf7bfd 	stp	x29, x30, [sp, #-16]!
  4171c8:	910003fd 	mov	x29, sp
  4171cc:	97ffffe7 	bl	417168 <fgetc+0x3d58>
  4171d0:	12800000 	mov	w0, #0xffffffff            	// #-1
  4171d4:	92800001 	mov	x1, #0xffffffffffffffff    	// #-1
  4171d8:	a90a7ca1 	stp	x1, xzr, [x5, #160]
  4171dc:	b900c0a0 	str	w0, [x5, #192]
  4171e0:	a8c17bfd 	ldp	x29, x30, [sp], #16
  4171e4:	d65f03c0 	ret
--
  4171ec:	a9bf7bfd 	stp	x29, x30, [sp, #-16]!
  4171f0:	910003fd 	mov	x29, sp
  4171f4:	97ffffdd 	bl	417168 <fgetc+0x3d58>
  4171f8:	12800000 	mov	w0, #0xffffffff            	// #-1
  4171fc:	92800001 	mov	x1, #0xffffffffffffffff    	// #-1
  417200:	a90a7ca1 	stp	x1, xzr, [x5, #160]
  417204:	b900c0a0 	str	w0, [x5, #192]
  417208:	a8c17bfd 	ldp	x29, x30, [sp], #16
  41720c:	d65f03c0 	ret
--
  41723c:	a9017cbf 	stp	xzr, xzr, [x5, #16]
  417240:	a9027cbf 	stp	xzr, xzr, [x5, #32]
  417244:	a9037cbf 	stp	xzr, xzr, [x5, #48]
  417248:	a9047cbf 	stp	xzr, xzr, [x5, #64]
  41724c:	f90028bf 	str	xzr, [x5, #80]
  417250:	f90070a8 	str	x8, [x5, #224]
  417254:	f90054df 	str	xzr, [x6, #168]
  417258:	a8c17bfd 	ldp	x29, x30, [sp], #16
  41725c:	d65f03c0 	ret
  417260:	92800000 	mov	x0, #0xffffffffffffffff    	// #-1
  417264:	f90050c0 	str	x0, [x6, #160]
  417268:	f90054df 	str	xzr, [x6, #168]
  41726c:	a8c17bfd 	ldp	x29, x30, [sp], #16
  417270:	d65f03c0 	ret
  417274:	d503201f 	nop
  417278:	52800000 	mov	w0, #0x0                   	// #0
  41727c:	d65f03c0 	ret
--
  4172c4:	b9400260 	ldr	w0, [x19]
  4172c8:	363800a0 	tbz	w0, #7, 4172dc <fgetc+0x3ecc>
  4172cc:	aa1303e0 	mov	x0, x19
  4172d0:	f9400bf3 	ldr	x19, [sp, #16]
  4172d4:	a8c27bfd 	ldp	x29, x30, [sp], #32
  4172d8:	17fffbba 	b	4161c0 <fgetc+0x2db0>
  4172dc:	f9400bf3 	ldr	x19, [sp, #16]
  4172e0:	a8c27bfd 	ldp	x29, x30, [sp], #32
  4172e4:	d65f03c0 	ret
  4172e8:	9400188a 	bl	41d510 <fgetc+0xa100>
  4172ec:	a903fe7f 	stp	xzr, xzr, [x19, #56]
  4172f0:	17ffffec 	b	4172a0 <fgetc+0x3e90>
  4172f4:	d503201f 	nop
  4172f8:	92800000 	mov	x0, #0xffffffffffffffff    	// #-1
  4172fc:	d65f03c0 	ret
--
  417358:	d63f0040 	blr	x2
  41735c:	3100041f 	cmn	w0, #0x1
  417360:	54000080 	b.eq	417370 <fgetc+0x3f60>  // b.none
  417364:	b9400261 	ldr	w1, [x19]
  417368:	121b7821 	and	w1, w1, #0xffffffef
  41736c:	b9000261 	str	w1, [x19]
  417370:	a94153f3 	ldp	x19, x20, [sp, #16]
  417374:	a8c37bfd 	ldp	x29, x30, [sp], #48
  417378:	d65f03c0 	ret
--
  4173c0:	d1000401 	sub	x1, x0, #0x1
  4173c4:	f9000661 	str	x1, [x19, #8]
  4173c8:	385ff000 	ldurb	w0, [x0, #-1]
  4173cc:	b9400261 	ldr	w1, [x19]
  4173d0:	121b7821 	and	w1, w1, #0xffffffef
  4173d4:	b9000261 	str	w1, [x19]
  4173d8:	a94153f3 	ldp	x19, x20, [sp, #16]
  4173dc:	a8c27bfd 	ldp	x29, x30, [sp], #32
  4173e0:	d65f03c0 	ret
--
  417408:	f9401a82 	ldr	x2, [x20, #48]
  41740c:	aa1303e0 	mov	x0, x19
  417410:	12800001 	mov	w1, #0xffffffff            	// #-1
  417414:	d63f0040 	blr	x2
  417418:	3100041f 	cmn	w0, #0x1
  41741c:	54fffd81 	b.ne	4173cc <fgetc+0x3fbc>  // b.any
  417420:	a94153f3 	ldp	x19, x20, [sp, #16]
  417424:	a8c27bfd 	ldp	x29, x30, [sp], #32
  417428:	d65f03c0 	ret
--
  41743c:	aa0503e3 	mov	x3, x5
  417440:	14000004 	b	417450 <fgetc+0x4040>
  417444:	385ffc64 	ldrb	w4, [x3, #-1]!
  417448:	7100289f 	cmp	w4, #0xa
  41744c:	540000a0 	b.eq	417460 <fgetc+0x4050>  // b.none
  417450:	eb01007f 	cmp	x3, x1
  417454:	54ffff88 	b.hi	417444 <fgetc+0x4034>  // b.pmore
  417458:	0b000040 	add	w0, w2, w0
  41745c:	d65f03c0 	ret
  417460:	cb0300a0 	sub	x0, x5, x3
  417464:	51000400 	sub	w0, w0, #0x1
  417468:	d65f03c0 	ret
--
  41762c:	d2800001 	mov	x1, #0x0                   	// #0
  417630:	540006c1 	b.ne	417708 <fgetc+0x42f8>  // b.any
  417634:	2a1603e0 	mov	w0, w22
  417638:	a94153f3 	ldp	x19, x20, [sp, #16]
  41763c:	a9425bf5 	ldp	x21, x22, [sp, #32]
  417640:	a94363f7 	ldp	x23, x24, [sp, #48]
  417644:	a9446bf9 	ldp	x25, x26, [sp, #64]
  417648:	a8c97bfd 	ldp	x29, x30, [sp], #144
  41764c:	d65f03c0 	ret
--
  41791c:	eb010000 	subs	x0, x0, x1
  417920:	d2800001 	mov	x1, #0x0                   	// #0
  417924:	540007a1 	b.ne	417a18 <fgetc+0x4608>  // b.any
  417928:	2a1803e0 	mov	w0, w24
  41792c:	a94153f3 	ldp	x19, x20, [sp, #16]
  417930:	a9425bf5 	ldp	x21, x22, [sp, #32]
  417934:	a94363f7 	ldp	x23, x24, [sp, #48]
  417938:	a8c97bfd 	ldp	x29, x30, [sp], #144
  41793c:	d65f03c0 	ret
--
  417c14:	f94002e1 	ldr	x1, [x23]
  417c18:	eb010000 	subs	x0, x0, x1
  417c1c:	d2800001 	mov	x1, #0x0                   	// #0
  417c20:	540003e1 	b.ne	417c9c <fgetc+0x488c>  // b.any
  417c24:	a94153f3 	ldp	x19, x20, [sp, #16]
  417c28:	a94363f7 	ldp	x23, x24, [sp, #48]
  417c2c:	a9446bf9 	ldp	x25, x26, [sp, #64]
  417c30:	a8c87bfd 	ldp	x29, x30, [sp], #128
  417c34:	d65f03c0 	ret
--
  417cd0:	f9400a61 	ldr	x1, [x19, #16]
  417cd4:	4b010000 	sub	w0, w0, w1
  417cd8:	f9403261 	ldr	x1, [x19, #96]
  417cdc:	f9000281 	str	x1, [x20]
  417ce0:	b9001280 	str	w0, [x20, #16]
  417ce4:	f9003274 	str	x20, [x19, #96]
  417ce8:	a94153f3 	ldp	x19, x20, [sp, #16]
  417cec:	a8c27bfd 	ldp	x29, x30, [sp], #32
  417cf0:	d65f03c0 	ret
  417cf4:	f9400e61 	ldr	x1, [x19, #24]
  417cf8:	4b010000 	sub	w0, w0, w1
  417cfc:	f9403261 	ldr	x1, [x19, #96]
  417d00:	f9000281 	str	x1, [x20]
  417d04:	b9001280 	str	w0, [x20, #16]
  417d08:	f9003274 	str	x20, [x19, #96]
  417d0c:	a94153f3 	ldp	x19, x20, [sp, #16]
  417d10:	a8c27bfd 	ldp	x29, x30, [sp], #32
  417d14:	d65f03c0 	ret
--
  417d34:	eb01001f 	cmp	x0, x1
  417d38:	54000061 	b.ne	417d44 <fgetc+0x4934>  // b.any
  417d3c:	14000007 	b	417d58 <fgetc+0x4948>
  417d40:	540000e0 	b.eq	417d5c <fgetc+0x494c>  // b.none
  417d44:	aa0103e2 	mov	x2, x1
  417d48:	f9400021 	ldr	x1, [x1]
  417d4c:	eb01001f 	cmp	x0, x1
  417d50:	b5ffff81 	cbnz	x1, 417d40 <fgetc+0x4930>
  417d54:	d65f03c0 	ret
  417d58:	91018042 	add	x2, x2, #0x60
  417d5c:	f9400000 	ldr	x0, [x0]
  417d60:	f9000040 	str	x0, [x2]
  417d64:	d65f03c0 	ret
  417d68:	b9401002 	ldr	w2, [x0, #16]
  417d6c:	b9401020 	ldr	w0, [x1, #16]
  417d70:	4b000040 	sub	w0, w2, w0
  417d74:	d65f03c0 	ret
--
  417d7c:	b4000181 	cbz	x1, 417dac <fgetc+0x499c>
  417d80:	b9400023 	ldr	w3, [x1]
  417d84:	f9400422 	ldr	x2, [x1, #8]
  417d88:	374000c3 	tbnz	w3, #8, 417da0 <fgetc+0x4990>
  417d8c:	f9400c21 	ldr	x1, [x1, #24]
  417d90:	4b010041 	sub	w1, w2, w1
  417d94:	b9401000 	ldr	w0, [x0, #16]
  417d98:	4b010000 	sub	w0, w0, w1
  417d9c:	d65f03c0 	ret
  417da0:	f9400821 	ldr	x1, [x1, #16]
  417da4:	4b010041 	sub	w1, w2, w1
  417da8:	17fffffb 	b	417d94 <fgetc+0x4984>
  417dac:	12800000 	mov	w0, #0xffffffff            	// #-1
  417db0:	d65f03c0 	ret
--
  417df0:	f9402c46 	ldr	x6, [x2, #88]
  417df4:	12177863 	and	w3, w3, #0xfffffeff
  417df8:	b9000043 	str	w3, [x2]
  417dfc:	a9011046 	stp	x6, x4, [x2, #16]
  417e00:	f9002c45 	str	x5, [x2, #88]
  417e04:	8b20c021 	add	x1, x1, w0, sxtw
  417e08:	52800000 	mov	w0, #0x0                   	// #0
  417e0c:	f9000441 	str	x1, [x2, #8]
  417e10:	d65f03c0 	ret
--
  417e34:	32180063 	orr	w3, w3, #0x100
  417e38:	52800000 	mov	w0, #0x0                   	// #0
  417e3c:	b9000043 	str	w3, [x2]
  417e40:	f9000441 	str	x1, [x2, #8]
  417e44:	a9011844 	stp	x4, x6, [x2, #16]
  417e48:	f9002445 	str	x5, [x2, #72]
  417e4c:	17fffff1 	b	417e10 <fgetc+0x4a00>
  417e50:	12800000 	mov	w0, #0xffffffff            	// #-1
  417e54:	d65f03c0 	ret
  417e58:	f9403001 	ldr	x1, [x0, #96]
  417e5c:	b4000041 	cbz	x1, 417e64 <fgetc+0x4a54>
  417e60:	f900301f 	str	xzr, [x0, #96]
  417e64:	f9402401 	ldr	x1, [x0, #72]
  417e68:	b4000041 	cbz	x1, 417e70 <fgetc+0x4a60>
  417e6c:	17fffa5f 	b	4167e8 <fgetc+0x33d8>
  417e70:	d65f03c0 	ret
--
  417ef8:	d1000680 	sub	x0, x20, #0x1
  417efc:	f9000660 	str	x0, [x19, #8]
  417f00:	381ff295 	sturb	w21, [x20, #-1]
  417f04:	12001ea0 	and	w0, w21, #0xff
  417f08:	a94153f3 	ldp	x19, x20, [sp, #16]
  417f0c:	a9425bf5 	ldp	x21, x22, [sp, #32]
  417f10:	a94363f7 	ldp	x23, x24, [sp, #48]
  417f14:	a8c47bfd 	ldp	x29, x30, [sp], #64
  417f18:	d65f03c0 	ret
--
  417fcc:	17ffffef 	b	417f88 <fgetc+0x4b78>
  417fd0:	d1000694 	sub	x20, x20, #0x1
  417fd4:	f9000414 	str	x20, [x0, #8]
  417fd8:	17ffffcb 	b	417f04 <fgetc+0x4af4>
  417fdc:	12800000 	mov	w0, #0xffffffff            	// #-1
  417fe0:	17ffffca 	b	417f08 <fgetc+0x4af8>
  417fe4:	d503201f 	nop
  417fe8:	92800000 	mov	x0, #0xffffffffffffffff    	// #-1
  417fec:	d65f03c0 	ret
  417ff0:	12800000 	mov	w0, #0xffffffff            	// #-1
  417ff4:	d65f03c0 	ret
  417ff8:	92800000 	mov	x0, #0xffffffffffffffff    	// #-1
  417ffc:	d65f03c0 	ret
  418000:	d2800000 	mov	x0, #0x0                   	// #0
  418004:	d65f03c0 	ret
  418008:	12800000 	mov	w0, #0xffffffff            	// #-1
  41800c:	d65f03c0 	ret
  418010:	d65f03c0 	ret
  418014:	d503201f 	nop
  418018:	b00003c0 	adrp	x0, 491000 <.got+0x4d0>
  41801c:	f9403400 	ldr	x0, [x0, #104]
  418020:	d65f03c0 	ret
  418024:	d503201f 	nop
  418028:	d2800000 	mov	x0, #0x0                   	// #0
  41802c:	d65f03c0 	ret
  418030:	f9403400 	ldr	x0, [x0, #104]
  418034:	d65f03c0 	ret
  418038:	d65f03c0 	ret
--
  418088:	f94013f5 	ldr	x21, [sp, #32]
  41808c:	f9001014 	str	x20, [x0, #32]
  418090:	91264273 	add	x19, x19, #0x990
  418094:	b9401e60 	ldr	w0, [x19, #28]
  418098:	11000400 	add	w0, w0, #0x1
  41809c:	b9001e60 	str	w0, [x19, #28]
  4180a0:	a94153f3 	ldp	x19, x20, [sp, #16]
  4180a4:	a8c37bfd 	ldp	x29, x30, [sp], #48
  4180a8:	d65f03c0 	ret
--
  4180b0:	9400021a 	bl	418918 <fgetc+0x5508>
  4180b4:	17fffff4 	b	418084 <fgetc+0x4c74>
  4180b8:	f00003c2 	adrp	x2, 493000 <.got+0x24d0>
  4180bc:	91264042 	add	x2, x2, #0x990
  4180c0:	b9401c40 	ldr	w0, [x2, #28]
  4180c4:	51000400 	sub	w0, w0, #0x1
  4180c8:	b9001c40 	str	w0, [x2, #28]
  4180cc:	34000040 	cbz	w0, 4180d4 <fgetc+0x4cc4>
  4180d0:	d65f03c0 	ret
--
  4180e0:	91006053 	add	x19, x2, #0x18
  4180e4:	f900105f 	str	xzr, [x2, #32]
  4180e8:	aa1303e1 	mov	x1, x19
  4180ec:	9400e611 	bl	451930 <fgetc+0x3e520>
  4180f0:	7100041f 	cmp	w0, #0x1
  4180f4:	5400008c 	b.gt	418104 <fgetc+0x4cf4>
  4180f8:	f9400bf3 	ldr	x19, [sp, #16]
  4180fc:	a8c27bfd 	ldp	x29, x30, [sp], #32
  418100:	d65f03c0 	ret
--
  41810c:	d2800022 	mov	x2, #0x1                   	// #1
  418110:	d2800003 	mov	x3, #0x0                   	// #0
  418114:	d2800c48 	mov	x8, #0x62                  	// #98
  418118:	d4000001 	svc	#0x0
  41811c:	17fffff7 	b	4180f8 <fgetc+0x4ce8>
  418120:	f00003c0 	adrp	x0, 493000 <.got+0x24d0>
  418124:	91264000 	add	x0, x0, #0x990
  418128:	a901fc1f 	stp	xzr, xzr, [x0, #24]
  41812c:	d65f03c0 	ret
--
  418148:	b9400003 	ldr	w3, [x0]
  41814c:	12160464 	and	w4, w3, #0xc00
  418150:	7130009f 	cmp	w4, #0xc00
  418154:	540000c0 	b.eq	41816c <fgetc+0x4d5c>  // b.none
  418158:	f9400401 	ldr	x1, [x0, #8]
  41815c:	eb02003f 	cmp	x1, x2
  418160:	54000122 	b.cs	418184 <fgetc+0x4d74>  // b.hs, b.nlast
  418164:	39400020 	ldrb	w0, [x1]
  418168:	d65f03c0 	ret
  41816c:	f9401804 	ldr	x4, [x0, #48]
  418170:	12147863 	and	w3, w3, #0xfffff7ff
  418174:	b9000003 	str	w3, [x0]
  418178:	f9000401 	str	x1, [x0, #8]
  41817c:	f9001404 	str	x4, [x0, #40]
  418180:	17fffff7 	b	41815c <fgetc+0x4d4c>
  418184:	12800000 	mov	w0, #0xffffffff            	// #-1
  418188:	d65f03c0 	ret
--
  4182a4:	f9400a61 	ldr	x1, [x19, #16]
  4182a8:	eb03003f 	cmp	x1, x3
  4182ac:	54000262 	b.cs	4182f8 <fgetc+0x4ee8>  // b.hs, b.nlast
  4182b0:	a94363f7 	ldp	x23, x24, [sp, #48]
  4182b4:	f9000a63 	str	x3, [x19, #16]
  4182b8:	a94153f3 	ldp	x19, x20, [sp, #16]
  4182bc:	a9425bf5 	ldp	x21, x22, [sp, #32]
  4182c0:	a8c47bfd 	ldp	x29, x30, [sp], #64
  4182c4:	d65f03c0 	ret
--
  4182d4:	f9000661 	str	x1, [x19, #8]
  4182d8:	f9001663 	str	x3, [x19, #40]
  4182dc:	17ffffba 	b	4181c4 <fgetc+0x4db4>
  4182e0:	3100043f 	cmn	w1, #0x1
  4182e4:	5a9f03e0 	csetm	w0, ne  // ne = any
  4182e8:	a94153f3 	ldp	x19, x20, [sp, #16]
  4182ec:	a9425bf5 	ldp	x21, x22, [sp, #32]
  4182f0:	a8c47bfd 	ldp	x29, x30, [sp], #64
  4182f4:	d65f03c0 	ret
  4182f8:	a94153f3 	ldp	x19, x20, [sp, #16]
  4182fc:	a9425bf5 	ldp	x21, x22, [sp, #32]
  418300:	a94363f7 	ldp	x23, x24, [sp, #48]
  418304:	a8c47bfd 	ldp	x29, x30, [sp], #64
  418308:	d65f03c0 	ret
--
  418344:	12000018 	and	w24, w0, #0x1
  418348:	36000100 	tbz	w0, #0, 418368 <fgetc+0x4f58>
  41834c:	52800038 	mov	w24, #0x1                   	// #1
  418350:	2a1803e0 	mov	w0, w24
  418354:	a94153f3 	ldp	x19, x20, [sp, #16]
  418358:	a9425bf5 	ldp	x21, x22, [sp, #32]
  41835c:	a94363f7 	ldp	x23, x24, [sp, #48]
  418360:	a8c67bfd 	ldp	x29, x30, [sp], #96
  418364:	d65f03c0 	ret
--
  418420:	97ff9fac 	bl	4002d0 <.plt+0x30>
  418424:	2a1803e0 	mov	w0, w24
  418428:	a94153f3 	ldp	x19, x20, [sp, #16]
  41842c:	a9425bf5 	ldp	x21, x22, [sp, #32]
  418430:	a94363f7 	ldp	x23, x24, [sp, #48]
  418434:	a9446bf9 	ldp	x25, x26, [sp, #64]
  418438:	a94573fb 	ldp	x27, x28, [sp, #80]
  41843c:	a8c67bfd 	ldp	x29, x30, [sp], #96
  418440:	d65f03c0 	ret
  418444:	52800018 	mov	w24, #0x0                   	// #0
  418448:	2a1803e0 	mov	w0, w24
  41844c:	a9425bf5 	ldp	x21, x22, [sp, #32]
  418450:	a94363f7 	ldp	x23, x24, [sp, #48]
  418454:	a8c67bfd 	ldp	x29, x30, [sp], #96
  418458:	d65f03c0 	ret
--
  4184b0:	97ff9f88 	bl	4002d0 <.plt+0x30>
  4184b4:	2a1803e0 	mov	w0, w24
  4184b8:	a94153f3 	ldp	x19, x20, [sp, #16]
  4184bc:	a9425bf5 	ldp	x21, x22, [sp, #32]
  4184c0:	a94363f7 	ldp	x23, x24, [sp, #48]
  4184c4:	a9446bf9 	ldp	x25, x26, [sp, #64]
  4184c8:	a94573fb 	ldp	x27, x28, [sp, #80]
  4184cc:	a8c67bfd 	ldp	x29, x30, [sp], #96
  4184d0:	d65f03c0 	ret
--
  4185d4:	f9401260 	ldr	x0, [x19, #32]
  4185d8:	a94363f7 	ldp	x23, x24, [sp, #48]
  4185dc:	8b150000 	add	x0, x0, x21
  4185e0:	f9001660 	str	x0, [x19, #40]
  4185e4:	aa1503e0 	mov	x0, x21
  4185e8:	a94153f3 	ldp	x19, x20, [sp, #16]
  4185ec:	a9425bf5 	ldp	x21, x22, [sp, #32]
  4185f0:	a8c47bfd 	ldp	x29, x30, [sp], #64
  4185f4:	d65f03c0 	ret
--
  418618:	350001b4 	cbnz	w20, 41864c <fgetc+0x523c>
  41861c:	f9400675 	ldr	x21, [x19, #8]
  418620:	cb0102b5 	sub	x21, x21, x1
  418624:	aa1503e0 	mov	x0, x21
  418628:	a94153f3 	ldp	x19, x20, [sp, #16]
  41862c:	a9425bf5 	ldp	x21, x22, [sp, #32]
  418630:	a94363f7 	ldp	x23, x24, [sp, #48]
  418634:	a8c47bfd 	ldp	x29, x30, [sp], #64
  418638:	d65f03c0 	ret
--
  418728:	b8206822 	str	w2, [x1, x0]
  41872c:	17ffffbe 	b	418624 <fgetc+0x5214>
  418730:	b9400002 	ldr	w2, [x0]
  418734:	f27d005f 	tst	x2, #0x8
  418738:	3a411824 	ccmn	w1, #0x1, #0x4, ne  // ne = any
  41873c:	54000041 	b.ne	418744 <fgetc+0x5334>  // b.any
  418740:	17fffdce 	b	417e78 <fgetc+0x4a68>
  418744:	12800000 	mov	w0, #0xffffffff            	// #-1
  418748:	d65f03c0 	ret
--
  4187f0:	a901d675 	stp	x21, x21, [x19, #24]
  4187f4:	b4000276 	cbz	x22, 418840 <fgetc+0x5430>
  4187f8:	f9000a76 	str	x22, [x19, #16]
  4187fc:	a902d276 	stp	x22, x20, [x19, #40]
  418800:	a9425bf5 	ldp	x21, x22, [sp, #32]
  418804:	f900727f 	str	xzr, [x19, #224]
  418808:	a94153f3 	ldp	x19, x20, [sp, #16]
  41880c:	a8c37bfd 	ldp	x29, x30, [sp], #48
  418810:	d65f03c0 	ret
--
  418838:	a901d675 	stp	x21, x21, [x19, #24]
  41883c:	b5fffdf6 	cbnz	x22, 4187f8 <fgetc+0x53e8>
  418840:	f9000a74 	str	x20, [x19, #16]
  418844:	a902d675 	stp	x21, x21, [x19, #40]
  418848:	a9425bf5 	ldp	x21, x22, [sp, #32]
  41884c:	f900727f 	str	xzr, [x19, #224]
  418850:	a94153f3 	ldp	x19, x20, [sp, #16]
  418854:	a8c37bfd 	ldp	x29, x30, [sp], #48
  418858:	d65f03c0 	ret
--
  418888:	93407c42 	sxtw	x2, w2
  41888c:	d2800003 	mov	x3, #0x0                   	// #0
  418890:	97ffffc6 	bl	4187a8 <fgetc+0x5398>
  418894:	b9400260 	ldr	w0, [x19]
  418898:	321d0000 	orr	w0, w0, #0x8
  41889c:	b9000260 	str	w0, [x19]
  4188a0:	f9400bf3 	ldr	x19, [sp, #16]
  4188a4:	a8c27bfd 	ldp	x29, x30, [sp], #32
  4188a8:	d65f03c0 	ret
  4188ac:	d503201f 	nop
  4188b0:	f9400801 	ldr	x1, [x0, #16]
  4188b4:	f9401402 	ldr	x2, [x0, #40]
  4188b8:	f9400c00 	ldr	x0, [x0, #24]
  4188bc:	eb02003f 	cmp	x1, x2
  4188c0:	9a822021 	csel	x1, x1, x2, cs  // cs = hs, nlast
  4188c4:	cb000020 	sub	x0, x1, x0
  4188c8:	d65f03c0 	ret
--
  4188e4:	d1000424 	sub	x4, x1, #0x1
  4188e8:	eb03009f 	cmp	x4, x3
  4188ec:	540000e8 	b.hi	418908 <fgetc+0x54f8>  // b.pmore
  4188f0:	f1000c5f 	cmp	x2, #0x3
  4188f4:	d2a00082 	mov	x2, #0x40000               	// #262144
  4188f8:	9a828021 	csel	x1, x1, x2, hi  // hi = pmore
  4188fc:	eb00003f 	cmp	x1, x0
  418900:	1a9f37e0 	cset	w0, cs  // cs = hs, nlast
  418904:	d65f03c0 	ret
  418908:	d2a00021 	mov	x1, #0x10000               	// #65536
  41890c:	eb00003f 	cmp	x1, x0
  418910:	1a9f37e0 	cset	w0, cs  // cs = hs, nlast
  418914:	d65f03c0 	ret
--
  418958:	d2800c48 	mov	x8, #0x62                  	// #98
  41895c:	d4000001 	svc	#0x0
  418960:	52800040 	mov	w0, #0x2                   	// #2
  418964:	aa1303e1 	mov	x1, x19
  418968:	9400e3c2 	bl	451870 <fgetc+0x3e460>
  41896c:	35fffec0 	cbnz	w0, 418944 <fgetc+0x5534>
  418970:	f9400bf3 	ldr	x19, [sp, #16]
  418974:	a8c27bfd 	ldp	x29, x30, [sp], #32
  418978:	d65f03c0 	ret
  41897c:	d503201f 	nop
  418980:	b00003c1 	adrp	x1, 491000 <.got+0x4d0>
  418984:	91178021 	add	x1, x1, #0x5e0
  418988:	f9400000 	ldr	x0, [x0]
  41898c:	d503201f 	nop
  418990:	f9001020 	str	x0, [x1, #32]
  418994:	d65f03c0 	ret
  418998:	b00003c1 	adrp	x1, 491000 <.got+0x4d0>
  41899c:	91178021 	add	x1, x1, #0x5e0
  4189a0:	f9400000 	ldr	x0, [x0]
  4189a4:	d503201f 	nop
  4189a8:	f9000c20 	str	x0, [x1, #24]
  4189ac:	d65f03c0 	ret
  4189b0:	f9400000 	ldr	x0, [x0]
  4189b4:	f110201f 	cmp	x0, #0x408
  4189b8:	54000049 	b.ls	4189c0 <fgetc+0x55b0>  // b.plast
  4189bc:	d65f03c0 	ret
--
  4189d0:	f9002c20 	str	x0, [x1, #88]
  4189d4:	927cec40 	and	x0, x2, #0xfffffffffffffff0
  4189d8:	f1007c5f 	cmp	x2, #0x1f
  4189dc:	d1004400 	sub	x0, x0, #0x11
  4189e0:	d344fc00 	lsr	x0, x0, #4
  4189e4:	91000400 	add	x0, x0, #0x1
  4189e8:	9a9f8400 	csinc	x0, x0, xzr, hi  // hi = pmore
  4189ec:	f9002820 	str	x0, [x1, #80]
  4189f0:	d65f03c0 	ret
  4189f4:	d503201f 	nop
  4189f8:	f9400000 	ldr	x0, [x0]
  4189fc:	d29fffe1 	mov	x1, #0xffff                	// #65535
  418a00:	eb01001f 	cmp	x0, x1
  418a04:	54000049 	b.ls	418a0c <fgetc+0x55fc>  // b.plast
  418a08:	d65f03c0 	ret
  418a0c:	b00003c1 	adrp	x1, 491000 <.got+0x4d0>
  418a10:	91178021 	add	x1, x1, #0x5e0
  418a14:	d503201f 	nop
  418a18:	f9003020 	str	x0, [x1, #96]
  418a1c:	d65f03c0 	ret
  418a20:	b00003c1 	adrp	x1, 491000 <.got+0x4d0>
  418a24:	91178021 	add	x1, x1, #0x5e0
  418a28:	f9400000 	ldr	x0, [x0]
  418a2c:	d503201f 	nop
  418a30:	f9003420 	str	x0, [x1, #104]
  418a34:	d65f03c0 	ret
--
  418a98:	9a879042 	csel	x2, x2, x7, ls  // ls = plast
  418a9c:	eb04005f 	cmp	x2, x4
  418aa0:	9a8200c2 	csel	x2, x6, x2, eq  // eq = none
  418aa4:	38236802 	strb	w2, [x0, x3]
  418aa8:	cb020063 	sub	x3, x3, x2
  418aac:	eb03003f 	cmp	x1, x3
  418ab0:	54ffff03 	b.cc	418a90 <fgetc+0x5680>  // b.lo, b.ul, b.last
  418ab4:	38216805 	strb	w5, [x0, x1]
  418ab8:	d65f03c0 	ret
--
  418b9c:	8b030005 	add	x5, x0, x3
  418ba0:	6b04005f 	cmp	w2, w4
  418ba4:	92401c42 	and	x2, x2, #0xff
  418ba8:	540006c0 	b.eq	418c80 <fgetc+0x5870>  // b.none
  418bac:	91004045 	add	x5, x2, #0x10
  418bb0:	b5fffee2 	cbnz	x2, 418b8c <fgetc+0x577c>
  418bb4:	d503201f 	nop
  418bb8:	d2800000 	mov	x0, #0x0                   	// #0
  418bbc:	d65f03c0 	ret
--
  418c70:	91004045 	add	x5, x2, #0x10
  418c74:	b5fffee2 	cbnz	x2, 418c50 <fgetc+0x5840>
  418c78:	d2800000 	mov	x0, #0x0                   	// #0
  418c7c:	17ffffd0 	b	418bbc <fgetc+0x57ac>
  418c80:	2a2403e2 	mvn	w2, w4
  418c84:	390000a2 	strb	w2, [x5]
  418c88:	b4fff9a1 	cbz	x1, 418bbc <fgetc+0x57ac>
  418c8c:	f9000025 	str	x5, [x1]
  418c90:	d65f03c0 	ret
--
  418d8c:	0b0c016b 	add	w11, w11, w12
  418d90:	0b020022 	add	w2, w1, w2
  418d94:	0b030123 	add	w3, w9, w3
  418d98:	29000d0b 	stp	w11, w3, [x8]
  418d9c:	b9000906 	str	w6, [x8, #8]
  418da0:	29030105 	stp	w5, w0, [x8, #24]
  418da4:	b9002102 	str	w2, [x8, #32]
  418da8:	54000040 	b.eq	418db0 <fgetc+0x59a0>  // b.none
  418dac:	d65f03c0 	ret
  418db0:	b00003c0 	adrp	x0, 491000 <.got+0x4d0>
  418db4:	91178000 	add	x0, x0, #0x5e0
  418db8:	121d714a 	and	w10, w10, #0xfffffff8
  418dbc:	b9402801 	ldr	w1, [x0, #40]
  418dc0:	f9401c00 	ldr	x0, [x0, #56]
  418dc4:	29018101 	stp	w1, w0, [x8, #12]
  418dc8:	b900151f 	str	wzr, [x8, #20]
  418dcc:	b900250a 	str	w10, [x8, #36]
  418dd0:	d65f03c0 	ret
--
  418e00:	eb01001f 	cmp	x0, x1
  418e04:	54000100 	b.eq	418e24 <fgetc+0x5a14>  // b.none
  418e08:	b9400401 	ldr	w1, [x0, #4]
  418e0c:	321f0021 	orr	w1, w1, #0x2
  418e10:	b9000401 	str	w1, [x0, #4]
  418e14:	91002001 	add	x1, x0, #0x8
  418e18:	b900003f 	str	wzr, [x1]
  418e1c:	f9003003 	str	x3, [x0, #96]
  418e20:	d65f03c0 	ret
  418e24:	f00003c1 	adrp	x1, 493000 <.got+0x24d0>
  418e28:	d2801002 	mov	x2, #0x80                  	// #128
  418e2c:	f904f822 	str	x2, [x1, #2544]
  418e30:	91002001 	add	x1, x0, #0x8
  418e34:	b900003f 	str	wzr, [x1]
  418e38:	f9003003 	str	x3, [x0, #96]
  418e3c:	d65f03c0 	ret
  418e40:	b00003c1 	adrp	x1, 491000 <.got+0x4d0>
  418e44:	91178022 	add	x2, x1, #0x5e0
  418e48:	f9400000 	ldr	x0, [x0]
  418e4c:	d503201f 	nop
  418e50:	52800023 	mov	w3, #0x1                   	// #1
  418e54:	f902f020 	str	x0, [x1, #1504]
  418e58:	b9003443 	str	w3, [x2, #52]
  418e5c:	d65f03c0 	ret
  418e60:	b00003c1 	adrp	x1, 491000 <.got+0x4d0>
  418e64:	91178021 	add	x1, x1, #0x5e0
  418e68:	f9400000 	ldr	x0, [x0]
  418e6c:	d503201f 	nop
  418e70:	52800022 	mov	w2, #0x1                   	// #1
  418e74:	f9000420 	str	x0, [x1, #8]
  418e78:	b9003422 	str	w2, [x1, #52]
  418e7c:	d65f03c0 	ret
  418e80:	f9400000 	ldr	x0, [x0]
  418e84:	d2a04001 	mov	x1, #0x2000000             	// #33554432
  418e88:	eb01001f 	cmp	x0, x1
  418e8c:	54000049 	b.ls	418e94 <fgetc+0x5a84>  // b.plast
  418e90:	d65f03c0 	ret
  418e94:	b00003c1 	adrp	x1, 491000 <.got+0x4d0>
  418e98:	91178021 	add	x1, x1, #0x5e0
  418e9c:	d503201f 	nop
  418ea0:	52800022 	mov	w2, #0x1                   	// #1
  418ea4:	f9000820 	str	x0, [x1, #16]
  418ea8:	b9003422 	str	w2, [x1, #52]
  418eac:	d65f03c0 	ret
  418eb0:	b00003c1 	adrp	x1, 491000 <.got+0x4d0>
  418eb4:	91178021 	add	x1, x1, #0x5e0
  418eb8:	f9400000 	ldr	x0, [x0]
  418ebc:	d503201f 	nop
  418ec0:	52800022 	mov	w2, #0x1                   	// #1
  418ec4:	b9002c20 	str	w0, [x1, #44]
  418ec8:	b9003422 	str	w2, [x1, #52]
  418ecc:	d65f03c0 	ret
  418ed0:	f00003c1 	adrp	x1, 493000 <.got+0x24d0>
  418ed4:	9127c021 	add	x1, x1, #0x9f0
  418ed8:	f9400000 	ldr	x0, [x0]
  418edc:	d503201f 	nop
  418ee0:	b9000820 	str	w0, [x1, #8]
  418ee4:	d65f03c0 	ret
  418ee8:	f9400000 	ldr	x0, [x0]
  418eec:	f102801f 	cmp	x0, #0xa0
  418ef0:	54000049 	b.ls	418ef8 <fgetc+0x5ae8>  // b.plast
  418ef4:	d65f03c0 	ret
  418ef8:	f00003c2 	adrp	x2, 493000 <.got+0x24d0>
  418efc:	d503201f 	nop
  418f00:	91002001 	add	x1, x0, #0x8
  418f04:	f100001f 	cmp	x0, #0x0
  418f08:	927cec20 	and	x0, x1, #0xfffffffffffffff0
  418f0c:	d2800201 	mov	x1, #0x10                  	// #16
  418f10:	9a811000 	csel	x0, x0, x1, ne  // ne = any
  418f14:	f904f840 	str	x0, [x2, #2544]
  418f18:	d65f03c0 	ret
--
  418fe4:	37080102 	tbnz	w2, #1, 419004 <fgetc+0x5bf4>
  418fe8:	b00003c2 	adrp	x2, 491000 <.got+0x4d0>
  418fec:	8b030021 	add	x1, x1, x3
  418ff0:	f9444403 	ldr	x3, [x0, #2184]
  418ff4:	f9431440 	ldr	x0, [x2, #1576]
  418ff8:	8b030000 	add	x0, x0, x3
  418ffc:	eb00003f 	cmp	x1, x0
  419000:	54000041 	b.ne	419008 <fgetc+0x5bf8>  // b.any
  419004:	d65f03c0 	ret
--
  4190e8:	94002bb2 	bl	423fb0 <fgetc+0x10ba0>
  4190ec:	35000720 	cbnz	w0, 4191d0 <fgetc+0x5dc0>
  4190f0:	a9015274 	stp	x20, x20, [x19, #16]
  4190f4:	d503201f 	nop
  4190f8:	a9425bf5 	ldp	x21, x22, [sp, #32]
  4190fc:	aa1303e0 	mov	x0, x19
  419100:	a94153f3 	ldp	x19, x20, [sp, #16]
  419104:	a8c47bfd 	ldp	x29, x30, [sp], #64
  419108:	d65f03c0 	ret
--
  419398:	9400e116 	bl	4517f0 <fgetc+0x3e3e0>
  41939c:	eb16001f 	cmp	x0, x22
  4193a0:	54ffff01 	b.ne	419380 <fgetc+0x5f70>  // b.any
  4193a4:	f9401bf7 	ldr	x23, [sp, #48]
  4193a8:	aa1303e0 	mov	x0, x19
  4193ac:	a94153f3 	ldp	x19, x20, [sp, #16]
  4193b0:	a9425bf5 	ldp	x21, x22, [sp, #32]
  4193b4:	a8c47bfd 	ldp	x29, x30, [sp], #64
  4193b8:	d65f03c0 	ret
  4193bc:	aa0303f3 	mov	x19, x3
  4193c0:	aa1303e0 	mov	x0, x19
  4193c4:	a94153f3 	ldp	x19, x20, [sp, #16]
  4193c8:	a9425bf5 	ldp	x21, x22, [sp, #32]
  4193cc:	a8c47bfd 	ldp	x29, x30, [sp], #64
  4193d0:	d65f03c0 	ret
--
  419598:	f9401fe0 	ldr	x0, [sp, #56]
  41959c:	f9400281 	ldr	x1, [x20]
  4195a0:	eb010000 	subs	x0, x0, x1
  4195a4:	d2800001 	mov	x1, #0x0                   	// #0
  4195a8:	540000a1 	b.ne	4195bc <fgetc+0x61ac>  // b.any
  4195ac:	a94153f3 	ldp	x19, x20, [sp, #16]
  4195b0:	f94013f5 	ldr	x21, [sp, #32]
  4195b4:	a8c47bfd 	ldp	x29, x30, [sp], #64
  4195b8:	d65f03c0 	ret
--
  41964c:	eb04001f 	cmp	x0, x4
  419650:	54000301 	b.ne	4196b0 <fgetc+0x62a0>  // b.any
  419654:	f9401024 	ldr	x4, [x1, #32]
  419658:	b40000c4 	cbz	x4, 419670 <fgetc+0x6260>
  41965c:	f9001443 	str	x3, [x2, #40]
  419660:	f9401400 	ldr	x0, [x0, #40]
  419664:	f9001002 	str	x2, [x0, #32]
  419668:	a8c17bfd 	ldp	x29, x30, [sp], #16
  41966c:	d65f03c0 	ret
--
  419700:	9100235a 	add	x26, x26, #0x8
  419704:	eb19035f 	cmp	x26, x25
  419708:	54ffff21 	b.ne	4196ec <fgetc+0x62dc>  // b.any
  41970c:	a94153f3 	ldp	x19, x20, [sp, #16]
  419710:	a9425bf5 	ldp	x21, x22, [sp, #32]
  419714:	a94363f7 	ldp	x23, x24, [sp, #48]
  419718:	a9446bf9 	ldp	x25, x26, [sp, #64]
  41971c:	a8c57bfd 	ldp	x29, x30, [sp], #80
  419720:	d65f03c0 	ret
--
  4198cc:	35000ea0 	cbnz	w0, 419aa0 <fgetc+0x6690>
  4198d0:	f8376b13 	str	x19, [x24, x23]
  4198d4:	aa1303e0 	mov	x0, x19
  4198d8:	a94153f3 	ldp	x19, x20, [sp, #16]
  4198dc:	a9425bf5 	ldp	x21, x22, [sp, #32]
  4198e0:	a94363f7 	ldp	x23, x24, [sp, #48]
  4198e4:	a9446bf9 	ldp	x25, x26, [sp, #64]
  4198e8:	a8c57bfd 	ldp	x29, x30, [sp], #80
  4198ec:	d65f03c0 	ret
--
  419a28:	f9443a60 	ldr	x0, [x19, #2160]
  419a2c:	f9001e80 	str	x0, [x20, #56]
  419a30:	aa1303e0 	mov	x0, x19
  419a34:	a94153f3 	ldp	x19, x20, [sp, #16]
  419a38:	a9425bf5 	ldp	x21, x22, [sp, #32]
  419a3c:	a94363f7 	ldp	x23, x24, [sp, #48]
  419a40:	a9446bf9 	ldp	x25, x26, [sp, #64]
  419a44:	a8c57bfd 	ldp	x29, x30, [sp], #80
  419a48:	d65f03c0 	ret
--
  419d9c:	52800021 	mov	w1, #0x1                   	// #1
  419da0:	aa1403e2 	mov	x2, x20
  419da4:	52800000 	mov	w0, #0x0                   	// #0
  419da8:	9400de82 	bl	4517b0 <fgetc+0x3e3a0>
  419dac:	35000240 	cbnz	w0, 419df4 <fgetc+0x69e4>
  419db0:	aa1403e0 	mov	x0, x20
  419db4:	a94153f3 	ldp	x19, x20, [sp, #16]
  419db8:	a8c37bfd 	ldp	x29, x30, [sp], #48
  419dbc:	d65f03c0 	ret
--
  419e6c:	91182021 	add	x1, x1, #0x608
  419e70:	f9078cc2 	str	x2, [x6, #3864]
  419e74:	f0000002 	adrp	x2, 41c000 <fgetc+0x8bf0>
  419e78:	f9078461 	str	x1, [x3, #3848]
  419e7c:	912ae042 	add	x2, x2, #0xab8
  419e80:	52800021 	mov	w1, #0x1                   	// #1
  419e84:	f9078882 	str	x2, [x4, #3856]
  419e88:	b90a3001 	str	w1, [x0, #2608]
  419e8c:	d65f03c0 	ret
--
  41a24c:	d282440c 	mov	x12, #0x1220                	// #4640
  41a250:	a9427bfd 	ldp	x29, x30, [sp, #32]
  41a254:	a94353f3 	ldp	x19, x20, [sp, #48]
  41a258:	a9445bf5 	ldp	x21, x22, [sp, #64]
  41a25c:	a94563f7 	ldp	x23, x24, [sp, #80]
  41a260:	a9466bf9 	ldp	x25, x26, [sp, #96]
  41a264:	a94773fb 	ldp	x27, x28, [sp, #112]
  41a268:	8b2c63ff 	add	sp, sp, x12
  41a26c:	d65f03c0 	ret
--
  41a39c:	8b130021 	add	x1, x1, x19
  41a3a0:	eb01001f 	cmp	x0, x1
  41a3a4:	540000e0 	b.eq	41a3c0 <fgetc+0x6fb0>  // b.none
  41a3a8:	f9401bf7 	ldr	x23, [sp, #48]
  41a3ac:	52800000 	mov	w0, #0x0                   	// #0
  41a3b0:	a94153f3 	ldp	x19, x20, [sp, #16]
  41a3b4:	a9425bf5 	ldp	x21, x22, [sp, #32]
  41a3b8:	a8c47bfd 	ldp	x29, x30, [sp], #64
  41a3bc:	d65f03c0 	ret
--
  41a570:	eb010000 	subs	x0, x0, x1
  41a574:	d2800001 	mov	x1, #0x0                   	// #0
  41a578:	540034e1 	b.ne	41ac14 <fgetc+0x7804>  // b.any
  41a57c:	a94153f3 	ldp	x19, x20, [sp, #16]
  41a580:	a9425bf5 	ldp	x21, x22, [sp, #32]
  41a584:	a94363f7 	ldp	x23, x24, [sp, #48]
  41a588:	a94573fb 	ldp	x27, x28, [sp, #80]
  41a58c:	a8ca7bfd 	ldp	x29, x30, [sp], #160
  41a590:	d65f03c0 	ret
--
  41ae84:	f81f8334 	stur	x20, [x25, #-8]
  41ae88:	b2400021 	orr	x1, x1, #0x1
  41ae8c:	f9000441 	str	x1, [x2, #8]
  41ae90:	aa1903e0 	mov	x0, x25
  41ae94:	a94153f3 	ldp	x19, x20, [sp, #16]
  41ae98:	a9425bf5 	ldp	x21, x22, [sp, #32]
  41ae9c:	a9446bf9 	ldp	x25, x26, [sp, #64]
  41aea0:	a8c97bfd 	ldp	x29, x30, [sp], #144
  41aea4:	d65f03c0 	ret
--
  41af8c:	a94153f3 	ldp	x19, x20, [sp, #16]
  41af90:	b8206822 	str	w2, [x1, x0]
  41af94:	aa1903e0 	mov	x0, x25
  41af98:	a9425bf5 	ldp	x21, x22, [sp, #32]
  41af9c:	a94363f7 	ldp	x23, x24, [sp, #48]
  41afa0:	a9446bf9 	ldp	x25, x26, [sp, #64]
  41afa4:	a94573fb 	ldp	x27, x28, [sp, #80]
  41afa8:	a8c97bfd 	ldp	x29, x30, [sp], #144
  41afac:	d65f03c0 	ret
--
  41b080:	54ffff01 	b.ne	41b060 <fgetc+0x7c50>  // b.any
  41b084:	aa1903e0 	mov	x0, x25
  41b088:	a94153f3 	ldp	x19, x20, [sp, #16]
  41b08c:	a9425bf5 	ldp	x21, x22, [sp, #32]
  41b090:	a94363f7 	ldp	x23, x24, [sp, #48]
  41b094:	a9446bf9 	ldp	x25, x26, [sp, #64]
  41b098:	a94573fb 	ldp	x27, x28, [sp, #80]
  41b09c:	a8c97bfd 	ldp	x29, x30, [sp], #144
  41b0a0:	d65f03c0 	ret
--
  41b63c:	35002621 	cbnz	w1, 41bb00 <fgetc+0x86f0>
  41b640:	a94153f3 	ldp	x19, x20, [sp, #16]
  41b644:	a94363f7 	ldp	x23, x24, [sp, #48]
  41b648:	a9446bf9 	ldp	x25, x26, [sp, #64]
  41b64c:	a94573fb 	ldp	x27, x28, [sp, #80]
  41b650:	aa1503e0 	mov	x0, x21
  41b654:	a9425bf5 	ldp	x21, x22, [sp, #32]
  41b658:	a8cc7bfd 	ldp	x29, x30, [sp], #192
  41b65c:	d65f03c0 	ret
--
  41ba60:	f946e000 	ldr	x0, [x0, #3520]
  41ba64:	d53bd041 	mrs	x1, tpidr_el0
  41ba68:	52800182 	mov	w2, #0xc                   	// #12
  41ba6c:	d2800015 	mov	x21, #0x0                   	// #0
  41ba70:	b8206822 	str	w2, [x1, x0]
  41ba74:	aa1503e0 	mov	x0, x21
  41ba78:	a9425bf5 	ldp	x21, x22, [sp, #32]
  41ba7c:	a8cc7bfd 	ldp	x29, x30, [sp], #192
  41ba80:	d65f03c0 	ret
--
  41c2ac:	900003a0 	adrp	x0, 490000 <fgetc+0x7cbf0>
  41c2b0:	f946e000 	ldr	x0, [x0, #3520]
  41c2b4:	d53bd041 	mrs	x1, tpidr_el0
  41c2b8:	52800182 	mov	w2, #0xc                   	// #12
  41c2bc:	a9425bf5 	ldp	x21, x22, [sp, #32]
  41c2c0:	b8206822 	str	w2, [x1, x0]
  41c2c4:	d2800000 	mov	x0, #0x0                   	// #0
  41c2c8:	a8c37bfd 	ldp	x29, x30, [sp], #48
  41c2cc:	d65f03c0 	ret
--
  41c390:	d2805001 	mov	x1, #0x280                 	// #640
  41c394:	97fffc61 	bl	41b518 <fgetc+0x8108>
  41c398:	aa0003f4 	mov	x20, x0
  41c39c:	b50000d3 	cbnz	x19, 41c3b4 <fgetc+0x8fa4>
  41c3a0:	b5fffc94 	cbnz	x20, 41c330 <fgetc+0x8f20>
  41c3a4:	a94153f3 	ldp	x19, x20, [sp, #16]
  41c3a8:	f94013f5 	ldr	x21, [sp, #32]
  41c3ac:	a8c37bfd 	ldp	x29, x30, [sp], #48
  41c3b0:	d65f03c0 	ret
--
  41c4ec:	b50007e1 	cbnz	x1, 41c5e8 <fgetc+0x91d8>
  41c4f0:	f9400460 	ldr	x0, [x3, #8]
  41c4f4:	360800e0 	tbz	w0, #1, 41c510 <fgetc+0x9100>
  41c4f8:	aa1403e0 	mov	x0, x20
  41c4fc:	a94153f3 	ldp	x19, x20, [sp, #16]
  41c500:	a9425bf5 	ldp	x21, x22, [sp, #32]
  41c504:	a94363f7 	ldp	x23, x24, [sp, #48]
  41c508:	a8c47bfd 	ldp	x29, x30, [sp], #64
  41c50c:	d65f03c0 	ret
--
  41c554:	aa130093 	orr	x19, x4, x19
  41c558:	f9000473 	str	x19, [x3, #8]
  41c55c:	97fff7b3 	bl	41a428 <fgetc+0x7018>
  41c560:	aa1403e0 	mov	x0, x20
  41c564:	a94153f3 	ldp	x19, x20, [sp, #16]
  41c568:	a9425bf5 	ldp	x21, x22, [sp, #32]
  41c56c:	a94363f7 	ldp	x23, x24, [sp, #48]
  41c570:	a8c47bfd 	ldp	x29, x30, [sp], #64
  41c574:	d65f03c0 	ret
--
  41c57c:	f946e000 	ldr	x0, [x0, #3520]
  41c580:	d53bd041 	mrs	x1, tpidr_el0
  41c584:	52800182 	mov	w2, #0xc                   	// #12
  41c588:	d2800014 	mov	x20, #0x0                   	// #0
  41c58c:	b8206822 	str	w2, [x1, x0]
  41c590:	aa1403e0 	mov	x0, x20
  41c594:	a94153f3 	ldp	x19, x20, [sp, #16]
  41c598:	a8c47bfd 	ldp	x29, x30, [sp], #64
  41c59c:	d65f03c0 	ret
--
  41c5c4:	910042b4 	add	x20, x21, #0x10
  41c5c8:	8b040063 	add	x3, x3, x4
  41c5cc:	a9005ea3 	stp	x3, x23, [x21]
  41c5d0:	aa1403e0 	mov	x0, x20
  41c5d4:	a94153f3 	ldp	x19, x20, [sp, #16]
  41c5d8:	a9425bf5 	ldp	x21, x22, [sp, #32]
  41c5dc:	a94363f7 	ldp	x23, x24, [sp, #48]
  41c5e0:	a8c47bfd 	ldp	x29, x30, [sp], #64
  41c5e4:	d65f03c0 	ret
--
  41c6f8:	900003a0 	adrp	x0, 490000 <fgetc+0x7cbf0>
  41c6fc:	f946e000 	ldr	x0, [x0, #3520]
  41c700:	d53bd041 	mrs	x1, tpidr_el0
  41c704:	52800182 	mov	w2, #0xc                   	// #12
  41c708:	b8206822 	str	w2, [x1, x0]
  41c70c:	d2800000 	mov	x0, #0x0                   	// #0
  41c710:	a94153f3 	ldp	x19, x20, [sp, #16]
  41c714:	a8c37bfd 	ldp	x29, x30, [sp], #48
  41c718:	d65f03c0 	ret
--
  41c7cc:	aa1403e1 	mov	x1, x20
  41c7d0:	52800000 	mov	w0, #0x0                   	// #0
  41c7d4:	9400d457 	bl	451930 <fgetc+0x3e520>
  41c7d8:	7100041f 	cmp	w0, #0x1
  41c7dc:	540001ec 	b.gt	41c818 <fgetc+0x9408>
  41c7e0:	a94153f3 	ldp	x19, x20, [sp, #16]
  41c7e4:	f94013f5 	ldr	x21, [sp, #32]
  41c7e8:	a8c37bfd 	ldp	x29, x30, [sp], #48
  41c7ec:	d65f03c0 	ret
--
  41c814:	17fff275 	b	4191e8 <fgetc+0x5dd8>
  41c818:	aa1403e0 	mov	x0, x20
  41c81c:	d2801021 	mov	x1, #0x81                  	// #129
  41c820:	d2800022 	mov	x2, #0x1                   	// #1
  41c824:	d2800003 	mov	x3, #0x0                   	// #0
  41c828:	d2800c48 	mov	x8, #0x62                  	// #98
  41c82c:	d4000001 	svc	#0x0
  41c830:	17ffffec 	b	41c7e0 <fgetc+0x93d0>
  41c834:	d65f03c0 	ret
--
  41c964:	f9000700 	str	x0, [x24, #8]
  41c968:	91004295 	add	x21, x20, #0x10
  41c96c:	aa1503e0 	mov	x0, x21
  41c970:	a94153f3 	ldp	x19, x20, [sp, #16]
  41c974:	a9425bf5 	ldp	x21, x22, [sp, #32]
  41c978:	a94363f7 	ldp	x23, x24, [sp, #48]
  41c97c:	f94023f9 	ldr	x25, [sp, #64]
  41c980:	a8c57bfd 	ldp	x29, x30, [sp], #80
  41c984:	d65f03c0 	ret
--
  41cc0c:	f94037e2 	ldr	x2, [sp, #104]
  41cc10:	f9400023 	ldr	x3, [x1]
  41cc14:	eb030042 	subs	x2, x2, x3
  41cc18:	d2800003 	mov	x3, #0x0                   	// #0
  41cc1c:	54000761 	b.ne	41cd08 <fgetc+0x98f8>  // b.any
  41cc20:	a94363f7 	ldp	x23, x24, [sp, #48]
  41cc24:	a9446bf9 	ldp	x25, x26, [sp, #64]
  41cc28:	a8c77bfd 	ldp	x29, x30, [sp], #112
  41cc2c:	d65f03c0 	ret
--
  41cd78:	52800000 	mov	w0, #0x0                   	// #0
  41cd7c:	9400d28d 	bl	4517b0 <fgetc+0x3e3a0>
  41cd80:	350000e0 	cbnz	w0, 41cd9c <fgetc+0x998c>
  41cd84:	f9443a73 	ldr	x19, [x19, #2160]
  41cd88:	eb14027f 	cmp	x19, x20
  41cd8c:	54ffff21 	b.ne	41cd70 <fgetc+0x9960>  // b.any
  41cd90:	a94153f3 	ldp	x19, x20, [sp, #16]
  41cd94:	a8c27bfd 	ldp	x29, x30, [sp], #32
  41cd98:	d65f03c0 	ret
  41cd9c:	aa1303e0 	mov	x0, x19
  41cda0:	97ffeede 	bl	418918 <fgetc+0x5508>
  41cda4:	17fffff8 	b	41cd84 <fgetc+0x9974>
  41cda8:	d65f03c0 	ret
--
  41ce08:	9100c273 	add	x19, x19, #0x30
  41ce0c:	52800000 	mov	w0, #0x0                   	// #0
  41ce10:	aa1303e1 	mov	x1, x19
  41ce14:	9400d2c7 	bl	451930 <fgetc+0x3e520>
  41ce18:	7100041f 	cmp	w0, #0x1
  41ce1c:	5400018c 	b.gt	41ce4c <fgetc+0x9a3c>
  41ce20:	a94153f3 	ldp	x19, x20, [sp, #16]
  41ce24:	a8c27bfd 	ldp	x29, x30, [sp], #32
  41ce28:	d65f03c0 	ret
  41ce2c:	aa1303e0 	mov	x0, x19
  41ce30:	d2801021 	mov	x1, #0x81                  	// #129
  41ce34:	d2800022 	mov	x2, #0x1                   	// #1
  41ce38:	d2800003 	mov	x3, #0x0                   	// #0
  41ce3c:	d2800c48 	mov	x8, #0x62                  	// #98
  41ce40:	d4000001 	svc	#0x0
  41ce44:	17ffffec 	b	41cdf4 <fgetc+0x99e4>
  41ce48:	d65f03c0 	ret
--
  41cedc:	f9443800 	ldr	x0, [x0, #2160]
  41cee0:	eb03001f 	cmp	x0, x3
  41cee4:	54fffee1 	b.ne	41cec0 <fgetc+0x9ab0>  // b.any
  41cee8:	34000064 	cbz	w4, 41cef4 <fgetc+0x9ae4>
  41ceec:	9127c0a0 	add	x0, x5, #0x9f0
  41cef0:	f9000c01 	str	x1, [x0, #24]
  41cef4:	9127c0a5 	add	x5, x5, #0x9f0
  41cef8:	b90030bf 	str	wzr, [x5, #48]
  41cefc:	d65f03c0 	ret
--
  41cf2c:	91182021 	add	x1, x1, #0x608
  41cf30:	f9078cc2 	str	x2, [x6, #3864]
  41cf34:	90000002 	adrp	x2, 41c000 <fgetc+0x8bf0>
  41cf38:	f9078461 	str	x1, [x3, #3848]
  41cf3c:	912ae042 	add	x2, x2, #0xab8
  41cf40:	52800021 	mov	w1, #0x1                   	// #1
  41cf44:	f9078882 	str	x2, [x4, #3856]
  41cf48:	b90a3001 	str	w1, [x0, #2608]
  41cf4c:	d65f03c0 	ret
--
  41cfe8:	92669421 	and	x1, x1, #0xfffffffffc000000
  41cfec:	f9400020 	ldr	x0, [x1]
  41cff0:	eb13001f 	cmp	x0, x19
  41cff4:	54000f41 	b.ne	41d1dc <fgetc+0x9dcc>  // b.any
  41cff8:	aa1503e0 	mov	x0, x21
  41cffc:	a94153f3 	ldp	x19, x20, [sp, #16]
  41d000:	a9425bf5 	ldp	x21, x22, [sp, #32]
  41d004:	a8c37bfd 	ldp	x29, x30, [sp], #48
  41d008:	d65f03c0 	ret
--
  41d0e8:	d4000001 	svc	#0x0
  41d0ec:	d503201f 	nop
  41d0f0:	b5000395 	cbnz	x21, 41d160 <fgetc+0x9d50>
  41d0f4:	d2800015 	mov	x21, #0x0                   	// #0
  41d0f8:	aa1503e0 	mov	x0, x21
  41d0fc:	a94153f3 	ldp	x19, x20, [sp, #16]
  41d100:	a9425bf5 	ldp	x21, x22, [sp, #32]
  41d104:	a8c37bfd 	ldp	x29, x30, [sp], #48
  41d108:	d65f03c0 	ret
--
  41d114:	d53bd041 	mrs	x1, tpidr_el0
  41d118:	52800182 	mov	w2, #0xc                   	// #12
  41d11c:	d2800015 	mov	x21, #0x0                   	// #0
  41d120:	a94153f3 	ldp	x19, x20, [sp, #16]
  41d124:	b8206822 	str	w2, [x1, x0]
  41d128:	aa1503e0 	mov	x0, x21
  41d12c:	a9425bf5 	ldp	x21, x22, [sp, #32]
  41d130:	a8c37bfd 	ldp	x29, x30, [sp], #48
  41d134:	d65f03c0 	ret
--
  41d2b0:	92669421 	and	x1, x1, #0xfffffffffc000000
  41d2b4:	f9400020 	ldr	x0, [x1]
  41d2b8:	eb16001f 	cmp	x0, x22
  41d2bc:	54000ee1 	b.ne	41d498 <fgetc+0xa088>  // b.any
  41d2c0:	aa1403e0 	mov	x0, x20
  41d2c4:	a94153f3 	ldp	x19, x20, [sp, #16]
  41d2c8:	a9425bf5 	ldp	x21, x22, [sp, #32]
  41d2cc:	a8c37bfd 	ldp	x29, x30, [sp], #48
  41d2d0:	d65f03c0 	ret
--
  41d3b0:	d4000001 	svc	#0x0
  41d3b4:	d503201f 	nop
  41d3b8:	b50002b4 	cbnz	x20, 41d40c <fgetc+0x9ffc>
  41d3bc:	d2800014 	mov	x20, #0x0                   	// #0
  41d3c0:	aa1403e0 	mov	x0, x20
  41d3c4:	a94153f3 	ldp	x19, x20, [sp, #16]
  41d3c8:	a9425bf5 	ldp	x21, x22, [sp, #32]
  41d3cc:	a8c37bfd 	ldp	x29, x30, [sp], #48
  41d3d0:	d65f03c0 	ret
--
  41d5a0:	f9400bf3 	ldr	x19, [sp, #16]
  41d5a4:	900003a0 	adrp	x0, 491000 <.got+0x4d0>
  41d5a8:	a8c37bfd 	ldp	x29, x30, [sp], #48
  41d5ac:	9119a000 	add	x0, x0, #0x668
  41d5b0:	52800002 	mov	w2, #0x0                   	// #0
  41d5b4:	17fff39d 	b	41a428 <fgetc+0x7018>
  41d5b8:	f9400bf3 	ldr	x19, [sp, #16]
  41d5bc:	a8c37bfd 	ldp	x29, x30, [sp], #48
  41d5c0:	d65f03c0 	ret
--
  41d6c4:	91008273 	add	x19, x19, #0x20
  41d6c8:	aa1303e1 	mov	x1, x19
  41d6cc:	9400d099 	bl	451930 <fgetc+0x3e520>
  41d6d0:	7100041f 	cmp	w0, #0x1
  41d6d4:	540001ac 	b.gt	41d708 <fgetc+0xa2f8>
  41d6d8:	a94153f3 	ldp	x19, x20, [sp, #16]
  41d6dc:	a9425bf5 	ldp	x21, x22, [sp, #32]
  41d6e0:	a8c37bfd 	ldp	x29, x30, [sp], #48
  41d6e4:	d65f03c0 	ret
--
  41d80c:	eb19001f 	cmp	x0, x25
  41d810:	54000a61 	b.ne	41d95c <fgetc+0xa54c>  // b.any
  41d814:	a94363f7 	ldp	x23, x24, [sp, #48]
  41d818:	f94023f9 	ldr	x25, [sp, #64]
  41d81c:	aa1603e0 	mov	x0, x22
  41d820:	a94153f3 	ldp	x19, x20, [sp, #16]
  41d824:	a9425bf5 	ldp	x21, x22, [sp, #32]
  41d828:	a8c57bfd 	ldp	x29, x30, [sp], #80
  41d82c:	d65f03c0 	ret
--
  41d860:	b4000180 	cbz	x0, 41d890 <fgetc+0xa480>
  41d864:	91004016 	add	x22, x0, #0x10
  41d868:	aa1603e0 	mov	x0, x22
  41d86c:	a94153f3 	ldp	x19, x20, [sp, #16]
  41d870:	a9425bf5 	ldp	x21, x22, [sp, #32]
  41d874:	a94363f7 	ldp	x23, x24, [sp, #48]
  41d878:	f94023f9 	ldr	x25, [sp, #64]
  41d87c:	a8c57bfd 	ldp	x29, x30, [sp], #80
  41d880:	d65f03c0 	ret
--
  41d8e0:	d2800016 	mov	x22, #0x0                   	// #0
  41d8e4:	a94153f3 	ldp	x19, x20, [sp, #16]
  41d8e8:	b8206822 	str	w2, [x1, x0]
  41d8ec:	aa1603e0 	mov	x0, x22
  41d8f0:	a9425bf5 	ldp	x21, x22, [sp, #32]
  41d8f4:	a94363f7 	ldp	x23, x24, [sp, #48]
  41d8f8:	f94023f9 	ldr	x25, [sp, #64]
  41d8fc:	a8c57bfd 	ldp	x29, x30, [sp], #80
  41d900:	d65f03c0 	ret
--
  41db94:	f0000381 	adrp	x1, 490000 <fgetc+0x7cbf0>
  41db98:	f946e021 	ldr	x1, [x1, #3520]
  41db9c:	d53bd042 	mrs	x2, tpidr_el0
  41dba0:	52800183 	mov	w3, #0xc                   	// #12
  41dba4:	d2800000 	mov	x0, #0x0                   	// #0
  41dba8:	f9400bf3 	ldr	x19, [sp, #16]
  41dbac:	b8216843 	str	w3, [x2, x1]
  41dbb0:	a8c37bfd 	ldp	x29, x30, [sp], #48
  41dbb4:	d65f03c0 	ret
--
  41dc50:	d00003a0 	adrp	x0, 493000 <.got+0x24d0>
  41dc54:	b949f800 	ldr	w0, [x0, #2552]
  41dc58:	35001220 	cbnz	w0, 41de9c <fgetc+0xaa8c>
  41dc5c:	a9425bf5 	ldp	x21, x22, [sp, #32]
  41dc60:	a94363f7 	ldp	x23, x24, [sp, #48]
  41dc64:	aa1403e0 	mov	x0, x20
  41dc68:	a94153f3 	ldp	x19, x20, [sp, #16]
  41dc6c:	a8c47bfd 	ldp	x29, x30, [sp], #64
  41dc70:	d65f03c0 	ret
--
  41dd78:	f946e000 	ldr	x0, [x0, #3520]
  41dd7c:	d53bd041 	mrs	x1, tpidr_el0
  41dd80:	52800182 	mov	w2, #0xc                   	// #12
  41dd84:	d2800014 	mov	x20, #0x0                   	// #0
  41dd88:	b8206822 	str	w2, [x1, x0]
  41dd8c:	aa1403e0 	mov	x0, x20
  41dd90:	a94153f3 	ldp	x19, x20, [sp, #16]
  41dd94:	a8c47bfd 	ldp	x29, x30, [sp], #64
  41dd98:	d65f03c0 	ret
--
  41e074:	54fff701 	b.ne	41df54 <fgetc+0xab44>  // b.any
  41e078:	b9406fe0 	ldr	w0, [sp, #108]
  41e07c:	a94153f3 	ldp	x19, x20, [sp, #16]
  41e080:	a9425bf5 	ldp	x21, x22, [sp, #32]
  41e084:	a94363f7 	ldp	x23, x24, [sp, #48]
  41e088:	a9446bf9 	ldp	x25, x26, [sp, #64]
  41e08c:	a94573fb 	ldp	x27, x28, [sp, #80]
  41e090:	a8c87bfd 	ldp	x29, x30, [sp], #128
  41e094:	d65f03c0 	ret
--
  41e19c:	f85f8000 	ldur	x0, [x0, #-8]
  41e1a0:	b94a3021 	ldr	w1, [x1, #2608]
  41e1a4:	927f0003 	and	x3, x0, #0x2
  41e1a8:	927df000 	and	x0, x0, #0xfffffffffffffff8
  41e1ac:	7100043f 	cmp	w1, #0x1
  41e1b0:	54000180 	b.eq	41e1e0 <fgetc+0xadd0>  // b.none
  41e1b4:	b4000063 	cbz	x3, 41e1c0 <fgetc+0xadb0>
  41e1b8:	d1004000 	sub	x0, x0, #0x10
  41e1bc:	d65f03c0 	ret
  41e1c0:	8b000042 	add	x2, x2, x0
  41e1c4:	d1002001 	sub	x1, x0, #0x8
  41e1c8:	f9400440 	ldr	x0, [x2, #8]
  41e1cc:	f2400000 	ands	x0, x0, #0x1
  41e1d0:	9a801020 	csel	x0, x1, x0, ne  // ne = any
  41e1d4:	d65f03c0 	ret
  41e1d8:	d2800000 	mov	x0, #0x0                   	// #0
  41e1dc:	d65f03c0 	ret
--
  41e310:	a90106c0 	stp	x0, x1, [x22, #16]
  41e314:	f94033e0 	ldr	x0, [sp, #96]
  41e318:	f90012c0 	str	x0, [x22, #32]
  41e31c:	54000241 	b.ne	41e364 <fgetc+0xaf54>  // b.any
  41e320:	a94153f3 	ldp	x19, x20, [sp, #16]
  41e324:	a9425bf5 	ldp	x21, x22, [sp, #32]
  41e328:	f9401bf7 	ldr	x23, [sp, #48]
  41e32c:	a8c77bfd 	ldp	x29, x30, [sp], #112
  41e330:	d65f03c0 	ret
--
  41e528:	d2800002 	mov	x2, #0x0                   	// #0
  41e52c:	54000281 	b.ne	41e57c <fgetc+0xb16c>  // b.any
  41e530:	a94153f3 	ldp	x19, x20, [sp, #16]
  41e534:	a9425bf5 	ldp	x21, x22, [sp, #32]
  41e538:	a94363f7 	ldp	x23, x24, [sp, #48]
  41e53c:	a9446bf9 	ldp	x25, x26, [sp, #64]
  41e540:	a94573fb 	ldp	x27, x28, [sp, #80]
  41e544:	a8ca7bfd 	ldp	x29, x30, [sp], #160
  41e548:	d65f03c0 	ret
--
  41e624:	9400ccc3 	bl	451930 <fgetc+0x3e520>
  41e628:	7100041f 	cmp	w0, #0x1
  41e62c:	54000b2c 	b.gt	41e790 <fgetc+0xb380>
  41e630:	2a1703e0 	mov	w0, w23
  41e634:	a94153f3 	ldp	x19, x20, [sp, #16]
  41e638:	a9425bf5 	ldp	x21, x22, [sp, #32]
  41e63c:	f9401bf7 	ldr	x23, [sp, #48]
  41e640:	a8c47bfd 	ldp	x29, x30, [sp], #64
  41e644:	d65f03c0 	ret
--
  41e7f8:	97fffa90 	bl	41d238 <fgetc+0x9e28>
  41e7fc:	aa0003e1 	mov	x1, x0
  41e800:	52800180 	mov	w0, #0xc                   	// #12
  41e804:	b4000061 	cbz	x1, 41e810 <fgetc+0xb400>
  41e808:	52800000 	mov	w0, #0x0                   	// #0
  41e80c:	f9000261 	str	x1, [x19]
  41e810:	f9400bf3 	ldr	x19, [sp, #16]
  41e814:	a8c27bfd 	ldp	x29, x30, [sp], #32
  41e818:	d65f03c0 	ret
--
  41e844:	90000200 	adrp	x0, 45e000 <fgetc+0x4abf0>
  41e848:	910ca000 	add	x0, x0, #0x328
  41e84c:	97ffca77 	bl	411228 <printf+0x6538>
  41e850:	aa1303e0 	mov	x0, x19
  41e854:	f9400bf3 	ldr	x19, [sp, #16]
  41e858:	a8c27bfd 	ldp	x29, x30, [sp], #32
  41e85c:	17ffed8d 	b	419e90 <fgetc+0x6a80>
  41e860:	528002c0 	mov	w0, #0x16                  	// #22
  41e864:	d65f03c0 	ret
--
  41e888:	17ffed82 	b	419e90 <fgetc+0x6a80>
  41e88c:	d503201f 	nop
  41e890:	a9bf7bfd 	stp	x29, x30, [sp, #-16]!
  41e894:	910003fd 	mov	x29, sp
  41e898:	9400154c 	bl	423dc8 <fgetc+0x109b8>
  41e89c:	b100041f 	cmn	x0, #0x1
  41e8a0:	9a9f1000 	csel	x0, x0, xzr, ne  // ne = any
  41e8a4:	a8c17bfd 	ldp	x29, x30, [sp], #16
  41e8a8:	d65f03c0 	ret
--
  41e8f4:	aa0003f4 	mov	x20, x0
  41e8f8:	b4000360 	cbz	x0, 41e964 <fgetc+0xb554>
  41e8fc:	52800020 	mov	w0, #0x1                   	// #1
  41e900:	a9005a74 	stp	x20, x22, [x19]
  41e904:	a94153f3 	ldp	x19, x20, [sp, #16]
  41e908:	a9425bf5 	ldp	x21, x22, [sp, #32]
  41e90c:	a94363f7 	ldp	x23, x24, [sp, #48]
  41e910:	a8c47bfd 	ldp	x29, x30, [sp], #64
  41e914:	d65f03c0 	ret
--
  41e9c8:	97fff962 	bl	41cf50 <fgetc+0x9b40>
  41e9cc:	aa0003e1 	mov	x1, x0
  41e9d0:	b4000340 	cbz	x0, 41ea38 <fgetc+0xb628>
  41e9d4:	52800020 	mov	w0, #0x1                   	// #1
  41e9d8:	f94013f5 	ldr	x21, [sp, #32]
  41e9dc:	a9005261 	stp	x1, x20, [x19]
  41e9e0:	a94153f3 	ldp	x19, x20, [sp, #16]
  41e9e4:	a8c37bfd 	ldp	x29, x30, [sp], #48
  41e9e8:	d65f03c0 	ret
--
  41ea14:	d53bd042 	mrs	x2, tpidr_el0
  41ea18:	d2808004 	mov	x4, #0x400                 	// #1024
  41ea1c:	a9001274 	stp	x20, x4, [x19]
  41ea20:	52800183 	mov	w3, #0xc                   	// #12
  41ea24:	52800000 	mov	w0, #0x0                   	// #0
  41ea28:	b8216843 	str	w3, [x2, x1]
  41ea2c:	a94153f3 	ldp	x19, x20, [sp, #16]
  41ea30:	a8c37bfd 	ldp	x29, x30, [sp], #48
  41ea34:	d65f03c0 	ret
--
  41eb08:	4e32be31 	addp	v17.16b, v17.16b, v18.16b
  41eb0c:	4e083e23 	mov	x3, v17.d[0]
  41eb10:	d1008042 	sub	x2, x2, #0x20
  41eb14:	dac00063 	rbit	x3, x3
  41eb18:	dac01063 	clz	x3, x3
  41eb1c:	f240007f 	tst	x3, #0x1
  41eb20:	8b430440 	add	x0, x2, x3, lsr #1
  41eb24:	9a9f0000 	csel	x0, x0, xzr, eq  // eq = none
  41eb28:	d65f03c0 	ret
--
  41eb78:	dac00cc6 	rev	x6, x6
  41eb7c:	dac00c42 	rev	x2, x2
  41eb80:	dac010cb 	clz	x11, x6
  41eb84:	dac00c63 	rev	x3, x3
  41eb88:	9acb2042 	lsl	x2, x2, x11
  41eb8c:	9acb2063 	lsl	x3, x3, x11
  41eb90:	d378fc42 	lsr	x2, x2, #56
  41eb94:	cb43e040 	sub	x0, x2, x3, lsr #56
  41eb98:	d65f03c0 	ret
--
  41ec00:	cb0a0047 	sub	x7, x2, x10
  41ec04:	b200d848 	orr	x8, x2, #0x7f7f7f7f7f7f7f7f
  41ec08:	ca030045 	eor	x5, x2, x3
  41ec0c:	8a2800e4 	bic	x4, x7, x8
  41ec10:	aa0400a6 	orr	x6, x5, x4
  41ec14:	b4fffec6 	cbz	x6, 41ebec <fgetc+0xb7dc>
  41ec18:	17ffffd8 	b	41eb78 <fgetc+0xb768>
  41ec1c:	cb030040 	sub	x0, x2, x3
  41ec20:	d65f03c0 	ret
--
  41ec7c:	dac00ce7 	rev	x7, x7
  41ec80:	dac010ef 	clz	x15, x7
  41ec84:	d2800709 	mov	x9, #0x38                  	// #56
  41ec88:	8b4f0c03 	add	x3, x0, x15, lsr #3
  41ec8c:	cb0f012f 	sub	x15, x9, x15
  41ec90:	9acf20a5 	lsl	x5, x5, x15
  41ec94:	f8001065 	stur	x5, [x3, #1]
  41ec98:	f9000004 	str	x4, [x0]
  41ec9c:	d65f03c0 	ret
  41eca0:	dac00cc6 	rev	x6, x6
  41eca4:	dac010cf 	clz	x15, x6
  41eca8:	8b4f0c03 	add	x3, x0, x15, lsr #3
  41ecac:	f10061e9 	subs	x9, x15, #0x18
  41ecb0:	540000ab 	b.lt	41ecc4 <fgetc+0xb8b4>  // b.tstop
  41ecb4:	9ac92485 	lsr	x5, x4, x9
  41ecb8:	b81fd065 	stur	w5, [x3, #-3]
  41ecbc:	b9000004 	str	w4, [x0]
  41ecc0:	d65f03c0 	ret
  41ecc4:	b400004f 	cbz	x15, 41eccc <fgetc+0xb8bc>
  41ecc8:	79000004 	strh	w4, [x0]
  41eccc:	3900007f 	strb	wzr, [x3]
  41ecd0:	d65f03c0 	ret
--
  41ed14:	dac00c84 	rev	x4, x4
  41ed18:	dac01088 	clz	x8, x4
  41ed1c:	9a8f13ef 	csel	x15, xzr, x15, ne  // ne = any
  41ed20:	8b480def 	add	x15, x15, x8, lsr #3
  41ed24:	8b0f0042 	add	x2, x2, x15
  41ed28:	8b0f0063 	add	x3, x3, x15
  41ed2c:	3cde1042 	ldur	q2, [x2, #-31]
  41ed30:	3c9f1062 	stur	q2, [x3, #-15]
  41ed34:	d65f03c0 	ret
--
  41eeec:	f945c694 	ldr	x20, [x20, #2952]
  41eef0:	f94097e1 	ldr	x1, [sp, #296]
  41eef4:	f9400282 	ldr	x2, [x20]
  41eef8:	eb020021 	subs	x1, x1, x2
  41eefc:	d2800002 	mov	x2, #0x0                   	// #0
  41ef00:	54000121 	b.ne	41ef24 <fgetc+0xbb14>  // b.any
  41ef04:	a94153f3 	ldp	x19, x20, [sp, #16]
  41ef08:	a8d37bfd 	ldp	x29, x30, [sp], #304
  41ef0c:	d65f03c0 	ret
--
  41ef48:	b40000c0 	cbz	x0, 41ef60 <fgetc+0xbb50>
  41ef4c:	aa1303e2 	mov	x2, x19
  41ef50:	aa1403e1 	mov	x1, x20
  41ef54:	a94153f3 	ldp	x19, x20, [sp, #16]
  41ef58:	a8c27bfd 	ldp	x29, x30, [sp], #32
  41ef5c:	17ff84d5 	b	4002b0 <.plt+0x10>
  41ef60:	a94153f3 	ldp	x19, x20, [sp, #16]
  41ef64:	a8c27bfd 	ldp	x29, x30, [sp], #32
  41ef68:	d65f03c0 	ret
--
  41ef78:	d2800001 	mov	x1, #0x0                   	// #0
  41ef7c:	910003fd 	mov	x29, sp
  41ef80:	a90153f3 	stp	x19, x20, [sp, #16]
  41ef84:	2a0003f3 	mov	w19, w0
  41ef88:	94000026 	bl	41f020 <fgetc+0xbc10>
  41ef8c:	b4000080 	cbz	x0, 41ef9c <fgetc+0xbb8c>
  41ef90:	a94153f3 	ldp	x19, x20, [sp, #16]
  41ef94:	a8c47bfd 	ldp	x29, x30, [sp], #64
  41ef98:	d65f03c0 	ret
--
  41f090:	f9400023 	ldr	x3, [x1]
  41f094:	eb030042 	subs	x2, x2, x3
  41f098:	d2800003 	mov	x3, #0x0                   	// #0
  41f09c:	54000981 	b.ne	41f1cc <fgetc+0xbdbc>  // b.any
  41f0a0:	a94153f3 	ldp	x19, x20, [sp, #16]
  41f0a4:	a9425bf5 	ldp	x21, x22, [sp, #32]
  41f0a8:	a94363f7 	ldp	x23, x24, [sp, #48]
  41f0ac:	a8c77bfd 	ldp	x29, x30, [sp], #112
  41f0b0:	d65f03c0 	ret
--
  41f1e0:	f9400001 	ldr	x1, [x0]
  41f1e4:	d358fc20 	lsr	x0, x1, #24
  41f1e8:	f101441f 	cmp	x0, #0x51
  41f1ec:	54000180 	b.eq	41f21c <fgetc+0xbe0c>  // b.none
  41f1f0:	f101201f 	cmp	x0, #0x48
  41f1f4:	d0000000 	adrp	x0, 421000 <fgetc+0xdbf0>
  41f1f8:	912f0000 	add	x0, x0, #0xbc0
  41f1fc:	54000040 	b.eq	41f204 <fgetc+0xbdf4>  // b.none
  41f200:	d65f03c0 	ret
  41f204:	d3443c21 	ubfx	x1, x1, #4, #12
  41f208:	d0000002 	adrp	x2, 421000 <fgetc+0xdbf0>
  41f20c:	f134043f 	cmp	x1, #0xd01
  41f210:	91340041 	add	x1, x2, #0xd00
  41f214:	9a811000 	csel	x0, x0, x1, ne  // ne = any
  41f218:	d65f03c0 	ret
  41f21c:	d3443c21 	ubfx	x1, x1, #4, #12
  41f220:	d0000000 	adrp	x0, 421000 <fgetc+0xdbf0>
  41f224:	f130003f 	cmp	x1, #0xc00
  41f228:	91340001 	add	x1, x0, #0xd00
  41f22c:	d0000000 	adrp	x0, 421000 <fgetc+0xdbf0>
  41f230:	912f0000 	add	x0, x0, #0xbc0
  41f234:	9a811000 	csel	x0, x0, x1, ne  // ne = any
  41f238:	d65f03c0 	ret
--
  41f2bc:	d1002000 	sub	x0, x0, #0x8
  41f2c0:	aa0603e7 	mov	x7, x6
  41f2c4:	d1002000 	sub	x0, x0, #0x8
  41f2c8:	dac00ce7 	rev	x7, x7
  41f2cc:	dac010ed 	clz	x13, x7
  41f2d0:	8b4d0c00 	add	x0, x0, x13, lsr #3
  41f2d4:	eb01001f 	cmp	x0, x1
  41f2d8:	9a819000 	csel	x0, x0, x1, ls  // ls = plast
  41f2dc:	d65f03c0 	ret
--
  41f32c:	d1004000 	sub	x0, x0, #0x10
  41f330:	dac00c63 	rev	x3, x3
  41f334:	91002009 	add	x9, x0, #0x8
  41f338:	dac01068 	clz	x8, x3
  41f33c:	9a891000 	csel	x0, x0, x9, ne  // ne = any
  41f340:	8b480c00 	add	x0, x0, x8, lsr #3
  41f344:	eb01001f 	cmp	x0, x1
  41f348:	9a819000 	csel	x0, x0, x1, ls  // ls = plast
  41f34c:	d65f03c0 	ret
--
  41f374:	9acb2529 	lsr	x9, x9, x11
  41f378:	8b4a11ce 	add	x14, x14, x10, lsr #4
  41f37c:	aa090063 	orr	x3, x3, x9
  41f380:	aa090085 	orr	x5, x4, x9
  41f384:	da9fd063 	csinv	x3, x3, xzr, le
  41f388:	9a85d084 	csel	x4, x4, x5, le
  41f38c:	17ffffbe 	b	41f284 <fgetc+0xbe74>
  41f390:	aa0103e0 	mov	x0, x1
  41f394:	d65f03c0 	ret
--
  41f450:	dac00ce7 	rev	x7, x7
  41f454:	dac00c63 	rev	x3, x3
  41f458:	dac010ec 	clz	x12, x7
  41f45c:	dac00c84 	rev	x4, x4
  41f460:	9acc2063 	lsl	x3, x3, x12
  41f464:	9acc2084 	lsl	x4, x4, x12
  41f468:	d378fc63 	lsr	x3, x3, #56
  41f46c:	cb44e060 	sub	x0, x3, x4, lsr #56
  41f470:	d65f03c0 	ret
--
  41f4c4:	54000122 	b.cs	41f4e8 <fgetc+0xc0d8>  // b.hs, b.nlast
  41f4c8:	38401403 	ldrb	w3, [x0], #1
  41f4cc:	38401424 	ldrb	w4, [x1], #1
  41f4d0:	f1000442 	subs	x2, x2, #0x1
  41f4d4:	7a418860 	ccmp	w3, #0x1, #0x0, hi  // hi = pmore
  41f4d8:	7a442060 	ccmp	w3, w4, #0x0, cs  // cs = hs, nlast
  41f4dc:	54ffff60 	b.eq	41f4c8 <fgetc+0xc0b8>  // b.none
  41f4e0:	cb040060 	sub	x0, x3, x4
  41f4e4:	d65f03c0 	ret
--
  41f570:	f8626824 	ldr	x4, [x1, x2]
  41f574:	cb0b0068 	sub	x8, x3, x11
  41f578:	b200d869 	orr	x9, x3, #0x7f7f7f7f7f7f7f7f
  41f57c:	ca040066 	eor	x6, x3, x4
  41f580:	ea290105 	bics	x5, x8, x9
  41f584:	fa4008c0 	ccmp	x6, #0x0, #0x0, eq  // eq = none
  41f588:	54fff621 	b.ne	41f44c <fgetc+0xc03c>  // b.any
  41f58c:	d2800000 	mov	x0, #0x0                   	// #0
  41f590:	d65f03c0 	ret
--
  41f898:	54000a21 	b.ne	41f9dc <fgetc+0xc5cc>  // b.any
  41f89c:	a9407bfd 	ldp	x29, x30, [sp]
  41f8a0:	a94153f3 	ldp	x19, x20, [sp, #16]
  41f8a4:	a9425bf5 	ldp	x21, x22, [sp, #32]
  41f8a8:	a94363f7 	ldp	x23, x24, [sp, #48]
  41f8ac:	a9446bf9 	ldp	x25, x26, [sp, #64]
  41f8b0:	a94573fb 	ldp	x27, x28, [sp, #80]
  41f8b4:	912283ff 	add	sp, sp, #0x8a0
  41f8b8:	d65f03c0 	ret
--
  41fbb0:	d2800001 	mov	x1, #0x0                   	// #0
  41fbb4:	54000721 	b.ne	41fc98 <fgetc+0xc888>  // b.any
  41fbb8:	aa1303e0 	mov	x0, x19
  41fbbc:	a94153f3 	ldp	x19, x20, [sp, #16]
  41fbc0:	a9425bf5 	ldp	x21, x22, [sp, #32]
  41fbc4:	a94363f7 	ldp	x23, x24, [sp, #48]
  41fbc8:	a94573fb 	ldp	x27, x28, [sp, #80]
  41fbcc:	a8d77bfd 	ldp	x29, x30, [sp], #368
  41fbd0:	d65f03c0 	ret
--
  41fd94:	eb05007f 	cmp	x3, x5
  41fd98:	9a841063 	csel	x3, x3, x4, ne  // ne = any
  41fd9c:	9a8610a5 	csel	x5, x5, x6, ne  // ne = any
  41fda0:	dac00c63 	rev	x3, x3
  41fda4:	dac00ca5 	rev	x5, x5
  41fda8:	eb05007f 	cmp	x3, x5
  41fdac:	1a9f07e0 	cset	w0, ne  // ne = any
  41fdb0:	5a802400 	cneg	w0, w0, cc  // cc = lo, ul, last
  41fdb4:	d65f03c0 	ret
--
  41fe20:	b1001042 	adds	x2, x2, #0x4
  41fe24:	54000100 	b.eq	41fe44 <fgetc+0xca34>  // b.none
  41fe28:	38401403 	ldrb	w3, [x0], #1
  41fe2c:	38401425 	ldrb	w5, [x1], #1
  41fe30:	f1000442 	subs	x2, x2, #0x1
  41fe34:	7a451060 	ccmp	w3, w5, #0x0, ne  // ne = any
  41fe38:	54ffff80 	b.eq	41fe28 <fgetc+0xca18>  // b.none
  41fe3c:	4b050060 	sub	w0, w3, w5
  41fe40:	d65f03c0 	ret
  41fe44:	52800000 	mov	w0, #0x0                   	// #0
  41fe48:	d65f03c0 	ret
--
  41fe70:	f101a03f 	cmp	x1, #0x68
  41fe74:	54000201 	b.ne	41feb4 <fgetc+0xcaa4>  // b.any
  41fe78:	f27c2c1f 	tst	x0, #0xfff0
  41fe7c:	b0000001 	adrp	x1, 420000 <fgetc+0xcbf0>
  41fe80:	d0000000 	adrp	x0, 421000 <fgetc+0xdbf0>
  41fe84:	91140021 	add	x1, x1, #0x500
  41fe88:	91120000 	add	x0, x0, #0x480
  41fe8c:	9a810000 	csel	x0, x0, x1, eq  // eq = none
  41fe90:	d65f03c0 	ret
  41fe94:	d3443c00 	ubfx	x0, x0, #4, #12
  41fe98:	b0000001 	adrp	x1, 420000 <fgetc+0xcbf0>
  41fe9c:	f130001f 	cmp	x0, #0xc00
  41fea0:	91140021 	add	x1, x1, #0x500
  41fea4:	d0000000 	adrp	x0, 421000 <fgetc+0xdbf0>
  41fea8:	91120000 	add	x0, x0, #0x480
  41feac:	9a810000 	csel	x0, x0, x1, eq  // eq = none
  41feb0:	d65f03c0 	ret
--
  41feb8:	54000261 	b.ne	41ff04 <fgetc+0xcaf4>  // b.any
  41febc:	d3443c00 	ubfx	x0, x0, #4, #12
  41fec0:	b0000001 	adrp	x1, 420000 <fgetc+0xcbf0>
  41fec4:	f114581f 	cmp	x0, #0x516
  41fec8:	91140021 	add	x1, x1, #0x500
  41fecc:	b0000000 	adrp	x0, 420000 <fgetc+0xcbf0>
  41fed0:	91300000 	add	x0, x0, #0xc00
  41fed4:	9a810000 	csel	x0, x0, x1, eq  // eq = none
  41fed8:	d65f03c0 	ret
--
  41fee0:	f102841f 	cmp	x0, #0xa1
  41fee4:	54000320 	b.eq	41ff48 <fgetc+0xcb38>  // b.none
  41fee8:	f102bc1f 	cmp	x0, #0xaf
  41feec:	b0000001 	adrp	x1, 420000 <fgetc+0xcbf0>
  41fef0:	b0000000 	adrp	x0, 420000 <fgetc+0xcbf0>
  41fef4:	91140021 	add	x1, x1, #0x500
  41fef8:	91300000 	add	x0, x0, #0xc00
  41fefc:	9a810000 	csel	x0, x0, x1, eq  // eq = none
  41ff00:	d65f03c0 	ret
--
  41ff08:	54000261 	b.ne	41ff54 <fgetc+0xcb44>  // b.any
  41ff0c:	d3443c00 	ubfx	x0, x0, #4, #12
  41ff10:	d281a921 	mov	x1, #0xd49                 	// #3401
  41ff14:	f134301f 	cmp	x0, #0xd0c
  41ff18:	fa411004 	ccmp	x0, x1, #0x4, ne  // ne = any
  41ff1c:	54000081 	b.ne	41ff2c <fgetc+0xcb1c>  // b.any
  41ff20:	b0000000 	adrp	x0, 420000 <fgetc+0xcbf0>
  41ff24:	91224000 	add	x0, x0, #0x890
  41ff28:	d65f03c0 	ret
  41ff2c:	f135001f 	cmp	x0, #0xd40
  41ff30:	b0000001 	adrp	x1, 420000 <fgetc+0xcbf0>
  41ff34:	b0000000 	adrp	x0, 420000 <fgetc+0xcbf0>
  41ff38:	91224021 	add	x1, x1, #0x890
  41ff3c:	91140000 	add	x0, x0, #0x500
  41ff40:	9a811000 	csel	x0, x0, x1, ne  // ne = any
  41ff44:	d65f03c0 	ret
  41ff48:	b0000000 	adrp	x0, 420000 <fgetc+0xcbf0>
  41ff4c:	91250000 	add	x0, x0, #0x940
  41ff50:	d65f03c0 	ret
  41ff54:	b0000000 	adrp	x0, 420000 <fgetc+0xcbf0>
  41ff58:	91140000 	add	x0, x0, #0x500
  41ff5c:	d65f03c0 	ret
--
  41ff7c:	f101441f 	cmp	x0, #0x51
  41ff80:	54000100 	b.eq	41ffa0 <fgetc+0xcb90>  // b.none
  41ff84:	f101a01f 	cmp	x0, #0x68
  41ff88:	54000341 	b.ne	41fff0 <fgetc+0xcbe0>  // b.any
  41ff8c:	f27c2c3f 	tst	x1, #0xfff0
  41ff90:	54000120 	b.eq	41ffb4 <fgetc+0xcba4>  // b.none
  41ff94:	d0000000 	adrp	x0, 421000 <fgetc+0xdbf0>
  41ff98:	911a0000 	add	x0, x0, #0x680
  41ff9c:	d65f03c0 	ret
--
  41ffac:	911a0000 	add	x0, x0, #0x680
  41ffb0:	54ffff61 	b.ne	41ff9c <fgetc+0xcb8c>  // b.any
  41ffb4:	7101005f 	cmp	w2, #0x40
  41ffb8:	d0000001 	adrp	x1, 421000 <fgetc+0xdbf0>
  41ffbc:	d0000000 	adrp	x0, 421000 <fgetc+0xdbf0>
  41ffc0:	91220021 	add	x1, x1, #0x880
  41ffc4:	911a0000 	add	x0, x0, #0x680
  41ffc8:	9a811000 	csel	x0, x0, x1, ne  // ne = any
  41ffcc:	d65f03c0 	ret
  41ffd0:	d3443c21 	ubfx	x1, x1, #4, #12
  41ffd4:	d0000000 	adrp	x0, 421000 <fgetc+0xdbf0>
  41ffd8:	f134043f 	cmp	x1, #0xd01
  41ffdc:	912b0001 	add	x1, x0, #0xac0
  41ffe0:	d0000000 	adrp	x0, 421000 <fgetc+0xdbf0>
  41ffe4:	911a0000 	add	x0, x0, #0x680
  41ffe8:	9a811000 	csel	x0, x0, x1, ne  // ne = any
  41ffec:	d65f03c0 	ret
--
  41fff8:	d3443c21 	ubfx	x1, x1, #4, #12
  41fffc:	7101005f 	cmp	w2, #0x40
  420000:	fa400820 	ccmp	x1, #0x0, #0x0, eq  // eq = none
  420004:	b0000000 	adrp	x0, 421000 <fgetc+0xdbf0>
  420008:	b0000001 	adrp	x1, 421000 <fgetc+0xdbf0>
  42000c:	911a0000 	add	x0, x0, #0x680
  420010:	91270021 	add	x1, x1, #0x9c0
  420014:	9a811000 	csel	x0, x0, x1, ne  // ne = any
  420018:	d65f03c0 	ret
--
  420020:	a9be7bfd 	stp	x29, x30, [sp, #-32]!
  420024:	910003fd 	mov	x29, sp
  420028:	f9000bf3 	str	x19, [sp, #16]
  42002c:	aa0203f3 	mov	x19, x2
  420030:	97ff80a0 	bl	4002b0 <.plt+0x10>
  420034:	8b130000 	add	x0, x0, x19
  420038:	f9400bf3 	ldr	x19, [sp, #16]
  42003c:	a8c27bfd 	ldp	x29, x30, [sp], #32
  420040:	d65f03c0 	ret
--
  4200c0:	dac010ef 	clz	x15, x7
  4200c4:	d2800709 	mov	x9, #0x38                  	// #56
  4200c8:	8b4f0c03 	add	x3, x0, x15, lsr #3
  4200cc:	cb0f012f 	sub	x15, x9, x15
  4200d0:	9acf20a5 	lsl	x5, x5, x15
  4200d4:	f8001065 	stur	x5, [x3, #1]
  4200d8:	f9000004 	str	x4, [x0]
  4200dc:	91002060 	add	x0, x3, #0x8
  4200e0:	d65f03c0 	ret
--
  4200e8:	dac010cf 	clz	x15, x6
  4200ec:	8b4f0c03 	add	x3, x0, x15, lsr #3
  4200f0:	f10061e9 	subs	x9, x15, #0x18
  4200f4:	540000cb 	b.lt	42010c <fgetc+0xccfc>  // b.tstop
  4200f8:	9ac92485 	lsr	x5, x4, x9
  4200fc:	b81fd065 	stur	w5, [x3, #-3]
  420100:	b9000004 	str	w4, [x0]
  420104:	aa0303e0 	mov	x0, x3
  420108:	d65f03c0 	ret
  42010c:	b400004f 	cbz	x15, 420114 <fgetc+0xcd04>
  420110:	79000004 	strh	w4, [x0]
  420114:	3900007f 	strb	wzr, [x3]
  420118:	aa0303e0 	mov	x0, x3
  42011c:	d65f03c0 	ret
--
  420164:	dac01088 	clz	x8, x4
  420168:	9a8f13ef 	csel	x15, xzr, x15, ne  // ne = any
  42016c:	8b480def 	add	x15, x15, x8, lsr #3
  420170:	8b0f0042 	add	x2, x2, x15
  420174:	8b0f0063 	add	x3, x3, x15
  420178:	3cde1042 	ldur	q2, [x2, #-31]
  42017c:	3c9f1062 	stur	q2, [x3, #-15]
  420180:	aa0303e0 	mov	x0, x3
  420184:	d65f03c0 	ret
--
  420234:	386368e2 	ldrb	w2, [x7, x3]
  420238:	38636826 	ldrb	w6, [x1, x3]
  42023c:	91000463 	add	x3, x3, #0x1
  420240:	aa0203e4 	mov	x4, x2
  420244:	b86278a2 	ldr	w2, [x5, x2, lsl #2]
  420248:	b86678a0 	ldr	w0, [x5, x6, lsl #2]
  42024c:	6b000040 	subs	w0, w2, w0
  420250:	54ffff00 	b.eq	420230 <fgetc+0xce20>  // b.none
  420254:	d65f03c0 	ret
  420258:	52800000 	mov	w0, #0x0                   	// #0
  42025c:	d65f03c0 	ret
--
  42028c:	38646903 	ldrb	w3, [x8, x4]
  420290:	38646827 	ldrb	w7, [x1, x4]
  420294:	91000484 	add	x4, x4, #0x1
  420298:	aa0303e5 	mov	x5, x3
  42029c:	b86378c3 	ldr	w3, [x6, x3, lsl #2]
  4202a0:	b86778c0 	ldr	w0, [x6, x7, lsl #2]
  4202a4:	6b000060 	subs	w0, w3, w0
  4202a8:	54fffec0 	b.eq	420280 <fgetc+0xce70>  // b.none
  4202ac:	d65f03c0 	ret
--
  4202d0:	f101a03f 	cmp	x1, #0x68
  4202d4:	54000341 	b.ne	42033c <fgetc+0xcf2c>  // b.any
  4202d8:	f27c2c1f 	tst	x0, #0xfff0
  4202dc:	90000001 	adrp	x1, 420000 <fgetc+0xcbf0>
  4202e0:	b0000000 	adrp	x0, 421000 <fgetc+0xdbf0>
  4202e4:	91144021 	add	x1, x1, #0x510
  4202e8:	910c0000 	add	x0, x0, #0x300
  4202ec:	9a810000 	csel	x0, x0, x1, eq  // eq = none
  4202f0:	d65f03c0 	ret
  4202f4:	d3443c00 	ubfx	x0, x0, #4, #12
  4202f8:	90000001 	adrp	x1, 420000 <fgetc+0xcbf0>
  4202fc:	f130001f 	cmp	x0, #0xc00
  420300:	91144021 	add	x1, x1, #0x510
  420304:	b0000000 	adrp	x0, 421000 <fgetc+0xdbf0>
  420308:	910c0000 	add	x0, x0, #0x300
  42030c:	9a810000 	csel	x0, x0, x1, eq  // eq = none
  420310:	d65f03c0 	ret
--
  420318:	f102841f 	cmp	x0, #0xa1
  42031c:	540005a0 	b.eq	4203d0 <fgetc+0xcfc0>  // b.none
  420320:	f102bc1f 	cmp	x0, #0xaf
  420324:	90000001 	adrp	x1, 420000 <fgetc+0xcbf0>
  420328:	90000000 	adrp	x0, 420000 <fgetc+0xcbf0>
  42032c:	91144021 	add	x1, x1, #0x510
  420330:	91308000 	add	x0, x0, #0xc20
  420334:	9a810000 	csel	x0, x0, x1, eq  // eq = none
  420338:	d65f03c0 	ret
--
  420340:	54000121 	b.ne	420364 <fgetc+0xcf54>  // b.any
  420344:	d3443c00 	ubfx	x0, x0, #4, #12
  420348:	90000001 	adrp	x1, 420000 <fgetc+0xcbf0>
  42034c:	f134041f 	cmp	x0, #0xd01
  420350:	91144021 	add	x1, x1, #0x510
  420354:	b0000000 	adrp	x0, 421000 <fgetc+0xdbf0>
  420358:	910c0000 	add	x0, x0, #0x300
  42035c:	9a810000 	csel	x0, x0, x1, eq  // eq = none
  420360:	d65f03c0 	ret
--
  420368:	54000121 	b.ne	42038c <fgetc+0xcf7c>  // b.any
  42036c:	d3443c00 	ubfx	x0, x0, #4, #12
  420370:	90000001 	adrp	x1, 420000 <fgetc+0xcbf0>
  420374:	f114581f 	cmp	x0, #0x516
  420378:	91144021 	add	x1, x1, #0x510
  42037c:	90000000 	adrp	x0, 420000 <fgetc+0xcbf0>
  420380:	91308000 	add	x0, x0, #0xc20
  420384:	9a810000 	csel	x0, x0, x1, eq  // eq = none
  420388:	d65f03c0 	ret
--
  420390:	54000261 	b.ne	4203dc <fgetc+0xcfcc>  // b.any
  420394:	d3443c00 	ubfx	x0, x0, #4, #12
  420398:	d281a921 	mov	x1, #0xd49                 	// #3401
  42039c:	f134301f 	cmp	x0, #0xd0c
  4203a0:	fa411004 	ccmp	x0, x1, #0x4, ne  // ne = any
  4203a4:	54000081 	b.ne	4203b4 <fgetc+0xcfa4>  // b.any
  4203a8:	90000000 	adrp	x0, 420000 <fgetc+0xcbf0>
  4203ac:	911d4000 	add	x0, x0, #0x750
  4203b0:	d65f03c0 	ret
  4203b4:	f135001f 	cmp	x0, #0xd40
  4203b8:	90000001 	adrp	x1, 420000 <fgetc+0xcbf0>
  4203bc:	90000000 	adrp	x0, 420000 <fgetc+0xcbf0>
  4203c0:	911d4021 	add	x1, x1, #0x750
  4203c4:	91144000 	add	x0, x0, #0x510
  4203c8:	9a811000 	csel	x0, x0, x1, ne  // ne = any
  4203cc:	d65f03c0 	ret
  4203d0:	90000000 	adrp	x0, 420000 <fgetc+0xcbf0>
  4203d4:	91254000 	add	x0, x0, #0x950
  4203d8:	d65f03c0 	ret
  4203dc:	90000000 	adrp	x0, 420000 <fgetc+0xcbf0>
  4203e0:	91144000 	add	x0, x0, #0x510
  4203e4:	d65f03c0 	ret
--
  4203ec:	d503201f 	nop
  4203f0:	34000061 	cbz	w1, 4203fc <fgetc+0xcfec>
  4203f4:	92800002 	mov	x2, #0xffffffffffffffff    	// #-1
  4203f8:	17ff7fbe 	b	4002f0 <.plt+0x50>
  4203fc:	aa1e03ef 	mov	x15, x30
  420400:	aa0003ee 	mov	x14, x0
  420404:	97ff7fb7 	bl	4002e0 <.plt+0x40>
  420408:	8b0001c0 	add	x0, x14, x0
  42040c:	d65f01e0 	ret	x15
--
  4204a4:	4e271cc6 	and	v6.16b, v6.16b, v7.16b
  4204a8:	4e26bcb0 	addp	v16.16b, v5.16b, v6.16b
  4204ac:	4e30be10 	addp	v16.16b, v16.16b, v16.16b
  4204b0:	4e083e03 	mov	x3, v16.d[0]
  4204b4:	dac00063 	rbit	x3, x3
  4204b8:	d1008042 	sub	x2, x2, #0x20
  4204bc:	dac01063 	clz	x3, x3
  4204c0:	8b430440 	add	x0, x2, x3, lsr #1
  4204c4:	d65f03c0 	ret
--
  420534:	a97e2c8a 	ldp	x10, x11, [x4, #-32]
  420538:	a97f348c 	ldp	x12, x13, [x4, #-16]
  42053c:	f101005f 	cmp	x2, #0x40
  420540:	54000508 	b.hi	4205e0 <fgetc+0xd1d0>  // b.pmore
  420544:	a9001c06 	stp	x6, x7, [x0]
  420548:	a9012408 	stp	x8, x9, [x0, #16]
  42054c:	a93e2caa 	stp	x10, x11, [x5, #-32]
  420550:	a93f34ac 	stp	x12, x13, [x5, #-16]
  420554:	d65f03c0 	ret
  420558:	d503201f 	nop
  42055c:	d503201f 	nop
  420560:	f100405f 	cmp	x2, #0x10
  420564:	540000e3 	b.cc	420580 <fgetc+0xd170>  // b.lo, b.ul, b.last
  420568:	a9401c26 	ldp	x6, x7, [x1]
  42056c:	a97f2488 	ldp	x8, x9, [x4, #-16]
  420570:	a9001c06 	stp	x6, x7, [x0]
  420574:	a93f24a8 	stp	x8, x9, [x5, #-16]
  420578:	d65f03c0 	ret
  42057c:	d503201f 	nop
  420580:	36180102 	tbz	w2, #3, 4205a0 <fgetc+0xd190>
  420584:	f9400026 	ldr	x6, [x1]
  420588:	f85f8087 	ldur	x7, [x4, #-8]
  42058c:	f9000006 	str	x6, [x0]
  420590:	f81f80a7 	stur	x7, [x5, #-8]
  420594:	d65f03c0 	ret
  420598:	d503201f 	nop
  42059c:	d503201f 	nop
  4205a0:	361000c2 	tbz	w2, #2, 4205b8 <fgetc+0xd1a8>
  4205a4:	b9400026 	ldr	w6, [x1]
  4205a8:	b85fc087 	ldur	w7, [x4, #-4]
  4205ac:	b9000006 	str	w6, [x0]
  4205b0:	b81fc0a7 	stur	w7, [x5, #-4]
  4205b4:	d65f03c0 	ret
  4205b8:	b4000102 	cbz	x2, 4205d8 <fgetc+0xd1c8>
  4205bc:	d341fc4e 	lsr	x14, x2, #1
  4205c0:	39400026 	ldrb	w6, [x1]
  4205c4:	385ff087 	ldurb	w7, [x4, #-1]
  4205c8:	386e6828 	ldrb	w8, [x1, x14]
  4205cc:	39000006 	strb	w6, [x0]
  4205d0:	382e6808 	strb	w8, [x0, x14]
  4205d4:	381ff0a7 	sturb	w7, [x5, #-1]
  4205d8:	d65f03c0 	ret
--
  4205f0:	a9001c06 	stp	x6, x7, [x0]
  4205f4:	a9012408 	stp	x8, x9, [x0, #16]
  4205f8:	a9023c0e 	stp	x14, x15, [x0, #32]
  4205fc:	a9034410 	stp	x16, x17, [x0, #48]
  420600:	a93c0ca2 	stp	x2, x3, [x5, #-64]
  420604:	a93d10a1 	stp	x1, x4, [x5, #-48]
  420608:	a93e2caa 	stp	x10, x11, [x5, #-32]
  42060c:	a93f34ac 	stp	x12, x13, [x5, #-16]
  420610:	d65f03c0 	ret
--
  420688:	a97e2488 	ldp	x8, x9, [x4, #-32]
  42068c:	a9032c6a 	stp	x10, x11, [x3, #48]
  420690:	a97f2c8a 	ldp	x10, x11, [x4, #-16]
  420694:	a904346c 	stp	x12, x13, [x3, #64]
  420698:	a93c3cae 	stp	x14, x15, [x5, #-64]
  42069c:	a93d1ca6 	stp	x6, x7, [x5, #-48]
  4206a0:	a93e24a8 	stp	x8, x9, [x5, #-32]
  4206a4:	a93f2caa 	stp	x10, x11, [x5, #-16]
  4206a8:	d65f03c0 	ret
--
  420728:	a9412428 	ldp	x8, x9, [x1, #16]
  42072c:	a93d2caa 	stp	x10, x11, [x5, #-48]
  420730:	a9402c2a 	ldp	x10, x11, [x1]
  420734:	a93c34ac 	stp	x12, x13, [x5, #-64]
  420738:	a9030c02 	stp	x2, x3, [x0, #48]
  42073c:	a9021c06 	stp	x6, x7, [x0, #32]
  420740:	a9012408 	stp	x8, x9, [x0, #16]
  420744:	a9002c0a 	stp	x10, x11, [x0]
  420748:	d65f03c0 	ret
--
  420760:	f100805f 	cmp	x2, #0x20
  420764:	540003e8 	b.hi	4207e0 <fgetc+0xd3d0>  // b.pmore
  420768:	f100405f 	cmp	x2, #0x10
  42076c:	540000c3 	b.cc	420784 <fgetc+0xd374>  // b.lo, b.ul, b.last
  420770:	3dc00020 	ldr	q0, [x1]
  420774:	3cdf0081 	ldur	q1, [x4, #-16]
  420778:	3d800000 	str	q0, [x0]
  42077c:	3c9f00a1 	stur	q1, [x5, #-16]
  420780:	d65f03c0 	ret
  420784:	361800c2 	tbz	w2, #3, 42079c <fgetc+0xd38c>
  420788:	f9400026 	ldr	x6, [x1]
  42078c:	f85f8087 	ldur	x7, [x4, #-8]
  420790:	f9000006 	str	x6, [x0]
  420794:	f81f80a7 	stur	x7, [x5, #-8]
  420798:	d65f03c0 	ret
  42079c:	361000c2 	tbz	w2, #2, 4207b4 <fgetc+0xd3a4>
  4207a0:	b9400026 	ldr	w6, [x1]
  4207a4:	b85fc088 	ldur	w8, [x4, #-4]
  4207a8:	b9000006 	str	w6, [x0]
  4207ac:	b81fc0a8 	stur	w8, [x5, #-4]
  4207b0:	d65f03c0 	ret
  4207b4:	b4000102 	cbz	x2, 4207d4 <fgetc+0xd3c4>
  4207b8:	d341fc4e 	lsr	x14, x2, #1
  4207bc:	39400026 	ldrb	w6, [x1]
  4207c0:	385ff08a 	ldurb	w10, [x4, #-1]
  4207c4:	386e6828 	ldrb	w8, [x1, x14]
  4207c8:	39000006 	strb	w6, [x0]
  4207cc:	382e6808 	strb	w8, [x0, x14]
  4207d0:	381ff0aa 	sturb	w10, [x5, #-1]
  4207d4:	d65f03c0 	ret
  4207d8:	d503201f 	nop
  4207dc:	d503201f 	nop
  4207e0:	ad400420 	ldp	q0, q1, [x1]
  4207e4:	ad7f0c82 	ldp	q2, q3, [x4, #-32]
  4207e8:	f101005f 	cmp	x2, #0x40
  4207ec:	540000a8 	b.hi	420800 <fgetc+0xd3f0>  // b.pmore
  4207f0:	ad000400 	stp	q0, q1, [x0]
  4207f4:	ad3f0ca2 	stp	q2, q3, [x5, #-32]
  4207f8:	d65f03c0 	ret
--
  420800:	ad411424 	ldp	q4, q5, [x1, #32]
  420804:	f101805f 	cmp	x2, #0x60
  420808:	54000069 	b.ls	420814 <fgetc+0xd404>  // b.plast
  42080c:	ad7e1c86 	ldp	q6, q7, [x4, #-64]
  420810:	ad3e1ca6 	stp	q6, q7, [x5, #-64]
  420814:	ad000400 	stp	q0, q1, [x0]
  420818:	ad011404 	stp	q4, q5, [x0, #32]
  42081c:	ad3f0ca2 	stp	q2, q3, [x5, #-32]
  420820:	d65f03c0 	ret
--
  420868:	f1010042 	subs	x2, x2, #0x40
  42086c:	54ffff28 	b.hi	420850 <fgetc+0xd440>  // b.pmore
  420870:	ad7e1484 	ldp	q4, q5, [x4, #-64]
  420874:	ad008460 	stp	q0, q1, [x3, #16]
  420878:	ad7f0480 	ldp	q0, q1, [x4, #-32]
  42087c:	ad018c62 	stp	q2, q3, [x3, #48]
  420880:	ad3e14a4 	stp	q4, q5, [x5, #-64]
  420884:	ad3f04a0 	stp	q0, q1, [x5, #-32]
  420888:	d65f03c0 	ret
--
  4208a0:	f100805f 	cmp	x2, #0x20
  4208a4:	54fff9e8 	b.hi	4207e0 <fgetc+0xd3d0>  // b.pmore
  4208a8:	f100405f 	cmp	x2, #0x10
  4208ac:	54fff6c3 	b.cc	420784 <fgetc+0xd374>  // b.lo, b.ul, b.last
  4208b0:	3dc00020 	ldr	q0, [x1]
  4208b4:	3cdf0081 	ldur	q1, [x4, #-16]
  4208b8:	3d800000 	str	q0, [x0]
  4208bc:	3c9f00a1 	stur	q1, [x5, #-16]
  4208c0:	d65f03c0 	ret
--
  420914:	f1010042 	subs	x2, x2, #0x40
  420918:	54ffff28 	b.hi	4208fc <fgetc+0xd4ec>  // b.pmore
  42091c:	ad411424 	ldp	q4, q5, [x1, #32]
  420920:	ad3f04a0 	stp	q0, q1, [x5, #-32]
  420924:	ad400420 	ldp	q0, q1, [x1]
  420928:	ad3e0ca2 	stp	q2, q3, [x5, #-64]
  42092c:	ad011404 	stp	q4, q5, [x0, #32]
  420930:	ad000400 	stp	q0, q1, [x0]
  420934:	d65f03c0 	ret
--
  420978:	a97f348c 	ldp	x12, x13, [x4, #-16]
  42097c:	362800ae 	tbz	w14, #5, 420990 <fgetc+0xd580>
  420980:	a9412428 	ldp	x8, x9, [x1, #16]
  420984:	a97e2c8a 	ldp	x10, x11, [x4, #-32]
  420988:	a9012408 	stp	x8, x9, [x0, #16]
  42098c:	a93e2caa 	stp	x10, x11, [x5, #-32]
  420990:	a9001c06 	stp	x6, x7, [x0]
  420994:	a93f34ac 	stp	x12, x13, [x5, #-16]
  420998:	d65f03c0 	ret
  42099c:	d503201f 	nop
  4209a0:	f100205f 	cmp	x2, #0x8
  4209a4:	540000e3 	b.cc	4209c0 <fgetc+0xd5b0>  // b.lo, b.ul, b.last
  4209a8:	f9400026 	ldr	x6, [x1]
  4209ac:	f85f8087 	ldur	x7, [x4, #-8]
  4209b0:	f9000006 	str	x6, [x0]
  4209b4:	f81f80a7 	stur	x7, [x5, #-8]
  4209b8:	d65f03c0 	ret
  4209bc:	d503201f 	nop
  4209c0:	361000c2 	tbz	w2, #2, 4209d8 <fgetc+0xd5c8>
  4209c4:	b9400026 	ldr	w6, [x1]
  4209c8:	b85fc087 	ldur	w7, [x4, #-4]
  4209cc:	b9000006 	str	w6, [x0]
  4209d0:	b81fc0a7 	stur	w7, [x5, #-4]
  4209d4:	d65f03c0 	ret
  4209d8:	b4000102 	cbz	x2, 4209f8 <fgetc+0xd5e8>
  4209dc:	d341fc4e 	lsr	x14, x2, #1
  4209e0:	39400026 	ldrb	w6, [x1]
  4209e4:	385ff087 	ldurb	w7, [x4, #-1]
  4209e8:	386e6828 	ldrb	w8, [x1, x14]
  4209ec:	39000006 	strb	w6, [x0]
  4209f0:	382e6808 	strb	w8, [x0, x14]
  4209f4:	381ff0a7 	sturb	w7, [x5, #-1]
  4209f8:	d65f03c0 	ret
--
  420a0c:	a97e0881 	ldp	x1, x2, [x4, #-32]
  420a10:	a97f0c84 	ldp	x4, x3, [x4, #-16]
  420a14:	a9001c06 	stp	x6, x7, [x0]
  420a18:	a9012408 	stp	x8, x9, [x0, #16]
  420a1c:	a9022c0a 	stp	x10, x11, [x0, #32]
  420a20:	a903340c 	stp	x12, x13, [x0, #48]
  420a24:	a93e08a1 	stp	x1, x2, [x5, #-32]
  420a28:	a93f0ca4 	stp	x4, x3, [x5, #-16]
  420a2c:	d65f03c0 	ret
--
  420b04:	a97e2488 	ldp	x8, x9, [x4, #-32]
  420b08:	a9032c6a 	stp	x10, x11, [x3, #48]
  420b0c:	a97f2c8a 	ldp	x10, x11, [x4, #-16]
  420b10:	a904346c 	stp	x12, x13, [x3, #64]
  420b14:	a93c08a1 	stp	x1, x2, [x5, #-64]
  420b18:	a93d1ca6 	stp	x6, x7, [x5, #-48]
  420b1c:	a93e24a8 	stp	x8, x9, [x5, #-32]
  420b20:	a93f2caa 	stp	x10, x11, [x5, #-16]
  420b24:	d65f03c0 	ret
--
  420ba8:	a9412428 	ldp	x8, x9, [x1, #16]
  420bac:	a93d2caa 	stp	x10, x11, [x5, #-48]
  420bb0:	a9402c2a 	ldp	x10, x11, [x1]
  420bb4:	a93c34ac 	stp	x12, x13, [x5, #-64]
  420bb8:	a9030c02 	stp	x2, x3, [x0, #48]
  420bbc:	a9021c06 	stp	x6, x7, [x0, #32]
  420bc0:	a9012408 	stp	x8, x9, [x0, #16]
  420bc4:	a9002c0a 	stp	x10, x11, [x0]
  420bc8:	d65f03c0 	ret
--
  420c44:	f101005f 	cmp	x2, #0x40
  420c48:	540005cc 	b.gt	420d00 <fgetc+0xd8f0>
  420c4c:	f100c05f 	cmp	x2, #0x30
  420c50:	540000cd 	b.le	420c68 <fgetc+0xd858>
  420c54:	ad400821 	ldp	q1, q2, [x1]
  420c58:	3c9f00a4 	stur	q4, [x5, #-16]
  420c5c:	ad000400 	stp	q0, q1, [x0]
  420c60:	3d800802 	str	q2, [x0, #32]
  420c64:	d65f03c0 	ret
  420c68:	f100805f 	cmp	x2, #0x20
  420c6c:	5400008c 	b.gt	420c7c <fgetc+0xd86c>
  420c70:	3d800000 	str	q0, [x0]
  420c74:	3c9f00a4 	stur	q4, [x5, #-16]
  420c78:	d65f03c0 	ret
  420c7c:	3dc00021 	ldr	q1, [x1]
  420c80:	3d800000 	str	q0, [x0]
  420c84:	3c9f00a4 	stur	q4, [x5, #-16]
  420c88:	3d800401 	str	q1, [x0, #16]
  420c8c:	d65f03c0 	ret
  420c90:	f100205f 	cmp	x2, #0x8
  420c94:	540000e3 	b.cc	420cb0 <fgetc+0xd8a0>  // b.lo, b.ul, b.last
  420c98:	f9400026 	ldr	x6, [x1]
  420c9c:	f85f8087 	ldur	x7, [x4, #-8]
  420ca0:	8b020005 	add	x5, x0, x2
  420ca4:	f9000006 	str	x6, [x0]
  420ca8:	f81f80a7 	stur	x7, [x5, #-8]
  420cac:	d65f03c0 	ret
  420cb0:	361000e2 	tbz	w2, #2, 420ccc <fgetc+0xd8bc>
  420cb4:	b9400026 	ldr	w6, [x1]
  420cb8:	b85fc087 	ldur	w7, [x4, #-4]
  420cbc:	8b020005 	add	x5, x0, x2
  420cc0:	b9000006 	str	w6, [x0]
  420cc4:	b81fc0a7 	stur	w7, [x5, #-4]
  420cc8:	d65f03c0 	ret
--
  420cd0:	d341fc4e 	lsr	x14, x2, #1
  420cd4:	39400026 	ldrb	w6, [x1]
  420cd8:	385ff087 	ldurb	w7, [x4, #-1]
  420cdc:	8b020005 	add	x5, x0, x2
  420ce0:	386e6828 	ldrb	w8, [x1, x14]
  420ce4:	382e6808 	strb	w8, [x0, x14]
  420ce8:	381ff0a7 	sturb	w7, [x5, #-1]
  420cec:	39000006 	strb	w6, [x0]
  420cf0:	d65f03c0 	ret
--
  420d0c:	8b0e0042 	add	x2, x2, x14
  420d10:	f101405f 	cmp	x2, #0x50
  420d14:	540000ec 	b.gt	420d30 <fgetc+0xd920>
  420d18:	3dc00823 	ldr	q3, [x1, #32]
  420d1c:	ad008861 	stp	q1, q2, [x3, #16]
  420d20:	3d800c63 	str	q3, [x3, #48]
  420d24:	3d800000 	str	q0, [x0]
  420d28:	3c9f00a4 	stur	q4, [x5, #-16]
  420d2c:	d65f03c0 	ret
  420d30:	ad411823 	ldp	q3, q6, [x1, #32]
  420d34:	f101805f 	cmp	x2, #0x60
  420d38:	540000cc 	b.gt	420d50 <fgetc+0xd940>
  420d3c:	ad008861 	stp	q1, q2, [x3, #16]
  420d40:	ad019863 	stp	q3, q6, [x3, #48]
  420d44:	3d800000 	str	q0, [x0]
  420d48:	3c9f00a4 	stur	q4, [x5, #-16]
  420d4c:	d65f03c0 	ret
  420d50:	3dc01025 	ldr	q5, [x1, #64]
  420d54:	3d800461 	str	q1, [x3, #16]
  420d58:	ad010c62 	stp	q2, q3, [x3, #32]
  420d5c:	ad021466 	stp	q6, q5, [x3, #64]
  420d60:	3d800000 	str	q0, [x0]
  420d64:	3c9f00a4 	stur	q4, [x5, #-16]
  420d68:	d65f03c0 	ret
--
  420e18:	f1010042 	subs	x2, x2, #0x40
  420e1c:	54fffeaa 	b.ge	420df0 <fgetc+0xd9e0>  // b.tcont
  420e20:	ad7e1885 	ldp	q5, q6, [x4, #-64]
  420e24:	ad7f4087 	ldp	q7, q16, [x4, #-32]
  420e28:	ac810861 	stp	q1, q2, [x3], #32
  420e2c:	ad001063 	stp	q3, q4, [x3]
  420e30:	ad3e18a5 	stp	q5, q6, [x5, #-64]
  420e34:	ad3f40a7 	stp	q7, q16, [x5, #-32]
  420e38:	d65f03c0 	ret
  420e3c:	ad7e0881 	ldp	q1, q2, [x4, #-64]
  420e40:	ad7f1083 	ldp	q3, q4, [x4, #-32]
  420e44:	ac811865 	stp	q5, q6, [x3], #32
  420e48:	ad004067 	stp	q7, q16, [x3]
  420e4c:	ad3e08a1 	stp	q1, q2, [x5, #-64]
  420e50:	ad3f10a3 	stp	q3, q4, [x5, #-32]
  420e54:	d65f03c0 	ret
  420e58:	ad7e0c82 	ldp	q2, q3, [x4, #-64]
  420e5c:	ad7f1484 	ldp	q4, q5, [x4, #-32]
  420e60:	ac810460 	stp	q0, q1, [x3], #32
  420e64:	ac80c067 	stp	q7, q16, [x3], #16
  420e68:	3cae6866 	str	q6, [x3, x14]
  420e6c:	ad3e0ca2 	stp	q2, q3, [x5, #-64]
  420e70:	ad3f14a4 	stp	q4, q5, [x5, #-32]
  420e74:	d65f03c0 	ret
--
  4212c0:	adfe0c82 	ldp	q2, q3, [x4, #-64]!
  4212c4:	54ffff68 	b.hi	4212b0 <fgetc+0xdea0>  // b.pmore
  4212c8:	ad411424 	ldp	q4, q5, [x1, #32]
  4212cc:	ad401c26 	ldp	q6, q7, [x1]
  4212d0:	ad3f04a0 	stp	q0, q1, [x5, #-32]
  4212d4:	ad3e0ca2 	stp	q2, q3, [x5, #-64]
  4212d8:	ad011404 	stp	q4, q5, [x0, #32]
  4212dc:	ad001c06 	stp	q6, q7, [x0]
  4212e0:	d65f03c0 	ret
--
  421340:	3d800c04 	str	q4, [x0, #48]
  421344:	3cdc0085 	ldur	q5, [x4, #-64]
  421348:	3cdd0086 	ldur	q6, [x4, #-48]
  42134c:	3c9c00a5 	stur	q5, [x5, #-64]
  421350:	3c9d00a6 	stur	q6, [x5, #-48]
  421354:	3d800400 	str	q0, [x0, #16]
  421358:	3c9e00a1 	stur	q1, [x5, #-32]
  42135c:	3c9f00a2 	stur	q2, [x5, #-16]
  421360:	d65f03c0 	ret
--
  421368:	d503201f 	nop
  42136c:	d503201f 	nop
  421370:	f100405f 	cmp	x2, #0x10
  421374:	540000e3 	b.cc	421390 <fgetc+0xdf80>  // b.lo, b.ul, b.last
  421378:	3dc00020 	ldr	q0, [x1]
  42137c:	3cdf0081 	ldur	q1, [x4, #-16]
  421380:	3d800000 	str	q0, [x0]
  421384:	3c9f00a1 	stur	q1, [x5, #-16]
  421388:	d65f03c0 	ret
  42138c:	d503201f 	nop
  421390:	36180102 	tbz	w2, #3, 4213b0 <fgetc+0xdfa0>
  421394:	f9400026 	ldr	x6, [x1]
  421398:	f85f8087 	ldur	x7, [x4, #-8]
  42139c:	f9000006 	str	x6, [x0]
  4213a0:	f81f80a7 	stur	x7, [x5, #-8]
  4213a4:	d65f03c0 	ret
  4213a8:	d503201f 	nop
  4213ac:	d503201f 	nop
  4213b0:	36100102 	tbz	w2, #2, 4213d0 <fgetc+0xdfc0>
  4213b4:	b9400026 	ldr	w6, [x1]
  4213b8:	b85fc087 	ldur	w7, [x4, #-4]
  4213bc:	b9000006 	str	w6, [x0]
  4213c0:	b81fc0a7 	stur	w7, [x5, #-4]
  4213c4:	d65f03c0 	ret
  4213c8:	d503201f 	nop
  4213cc:	d503201f 	nop
  4213d0:	36080102 	tbz	w2, #1, 4213f0 <fgetc+0xdfe0>
  4213d4:	79400026 	ldrh	w6, [x1]
  4213d8:	785fe087 	ldurh	w7, [x4, #-2]
  4213dc:	79000006 	strh	w6, [x0]
  4213e0:	781fe0a7 	sturh	w7, [x5, #-2]
  4213e4:	d65f03c0 	ret
  4213e8:	d503201f 	nop
  4213ec:	d503201f 	nop
  4213f0:	36000062 	tbz	w2, #0, 4213fc <fgetc+0xdfec>
  4213f4:	39400026 	ldrb	w6, [x1]
  4213f8:	39000006 	strb	w6, [x0]
  4213fc:	d65f03c0 	ret
--
  42143c:	3cdc0084 	ldur	q4, [x4, #-64]
  421440:	3c9c00a4 	stur	q4, [x5, #-64]
  421444:	3cdd0083 	ldur	q3, [x4, #-48]
  421448:	3c9d00a3 	stur	q3, [x5, #-48]
  42144c:	3cde0082 	ldur	q2, [x4, #-32]
  421450:	3c9e00a2 	stur	q2, [x5, #-32]
  421454:	3cdf0081 	ldur	q1, [x4, #-16]
  421458:	3c9f00a1 	stur	q1, [x5, #-16]
  42145c:	d65f03c0 	ret
--
  4214b4:	3cdf0094 	ldur	q20, [x4, #-16]
  4214b8:	362800ae 	tbz	w14, #5, 4214cc <fgetc+0xe0bc>
  4214bc:	3dc00432 	ldr	q18, [x1, #16]
  4214c0:	3cde0093 	ldur	q19, [x4, #-32]
  4214c4:	3d800412 	str	q18, [x0, #16]
  4214c8:	3c9e00b3 	stur	q19, [x5, #-32]
  4214cc:	3d800016 	str	q22, [x0]
  4214d0:	3c9f00b4 	stur	q20, [x5, #-16]
  4214d4:	d65f03c0 	ret
  4214d8:	d503201f 	nop
  4214dc:	d503201f 	nop
  4214e0:	f100205f 	cmp	x2, #0x8
  4214e4:	540000e3 	b.cc	421500 <fgetc+0xe0f0>  // b.lo, b.ul, b.last
  4214e8:	f9400026 	ldr	x6, [x1]
  4214ec:	f85f8087 	ldur	x7, [x4, #-8]
  4214f0:	f9000006 	str	x6, [x0]
  4214f4:	f81f80a7 	stur	x7, [x5, #-8]
  4214f8:	d65f03c0 	ret
  4214fc:	d503201f 	nop
  421500:	36100102 	tbz	w2, #2, 421520 <fgetc+0xe110>
  421504:	b9400026 	ldr	w6, [x1]
  421508:	b85fc087 	ldur	w7, [x4, #-4]
  42150c:	b9000006 	str	w6, [x0]
  421510:	b81fc0a7 	stur	w7, [x5, #-4]
  421514:	d65f03c0 	ret
  421518:	d503201f 	nop
  42151c:	d503201f 	nop
  421520:	36080102 	tbz	w2, #1, 421540 <fgetc+0xe130>
  421524:	79400026 	ldrh	w6, [x1]
  421528:	785fe087 	ldurh	w7, [x4, #-2]
  42152c:	79000006 	strh	w6, [x0]
  421530:	781fe0a7 	sturh	w7, [x5, #-2]
  421534:	d65f03c0 	ret
  421538:	d503201f 	nop
  42153c:	d503201f 	nop
  421540:	36000062 	tbz	w2, #0, 42154c <fgetc+0xe13c>
  421544:	39400026 	ldrb	w6, [x1]
  421548:	39000006 	strb	w6, [x0]
  42154c:	d65f03c0 	ret
--
  42155c:	3cde0095 	ldur	q21, [x4, #-32]
  421560:	3cdf0091 	ldur	q17, [x4, #-16]
  421564:	3d800016 	str	q22, [x0]
  421568:	3d800412 	str	q18, [x0, #16]
  42156c:	3d800813 	str	q19, [x0, #32]
  421570:	3d800c14 	str	q20, [x0, #48]
  421574:	3c9e00b5 	stur	q21, [x5, #-32]
  421578:	3c9f00b1 	stur	q17, [x5, #-16]
  42157c:	d65f03c0 	ret
--
  4215c8:	3cdd0092 	ldur	q18, [x4, #-48]
  4215cc:	3d800876 	str	q22, [x3, #32]
  4215d0:	3cde0096 	ldur	q22, [x4, #-32]
  4215d4:	3cdf0094 	ldur	q20, [x4, #-16]
  4215d8:	3c9c00b3 	stur	q19, [x5, #-64]
  4215dc:	3c9d00b2 	stur	q18, [x5, #-48]
  4215e0:	3c9e00b6 	stur	q22, [x5, #-32]
  4215e4:	3c9f00b4 	stur	q20, [x5, #-16]
  4215e8:	d65f03c0 	ret
--
  42163c:	3dc00832 	ldr	q18, [x1, #32]
  421640:	3c9e00b6 	stur	q22, [x5, #-32]
  421644:	3dc00436 	ldr	q22, [x1, #16]
  421648:	3dc00034 	ldr	q20, [x1]
  42164c:	3d800c13 	str	q19, [x0, #48]
  421650:	3d800812 	str	q18, [x0, #32]
  421654:	3d800416 	str	q22, [x0, #16]
  421658:	3d800014 	str	q20, [x0]
  42165c:	d65f03c0 	ret
--
  421688:	f101805f 	cmp	x2, #0x60
  42168c:	540003c8 	b.hi	421704 <fgetc+0xe2f4>  // b.pmore
  421690:	f100405f 	cmp	x2, #0x10
  421694:	54000202 	b.cs	4216d4 <fgetc+0xe2c4>  // b.hs, b.nlast
  421698:	4e083c01 	mov	x1, v0.d[0]
  42169c:	361800a2 	tbz	w2, #3, 4216b0 <fgetc+0xe2a0>
  4216a0:	f9000001 	str	x1, [x0]
  4216a4:	f81f8081 	stur	x1, [x4, #-8]
  4216a8:	d65f03c0 	ret
  4216ac:	d503201f 	nop
  4216b0:	36100082 	tbz	w2, #2, 4216c0 <fgetc+0xe2b0>
  4216b4:	b9000001 	str	w1, [x0]
  4216b8:	b81fc081 	stur	w1, [x4, #-4]
  4216bc:	d65f03c0 	ret
  4216c0:	b4000082 	cbz	x2, 4216d0 <fgetc+0xe2c0>
  4216c4:	39000001 	strb	w1, [x0]
  4216c8:	36080042 	tbz	w2, #1, 4216d0 <fgetc+0xe2c0>
  4216cc:	781fe081 	sturh	w1, [x4, #-2]
  4216d0:	d65f03c0 	ret
  4216d4:	3d800000 	str	q0, [x0]
  4216d8:	373000c2 	tbnz	w2, #6, 4216f0 <fgetc+0xe2e0>
  4216dc:	3c9f0080 	stur	q0, [x4, #-16]
  4216e0:	36280062 	tbz	w2, #5, 4216ec <fgetc+0xe2dc>
  4216e4:	3d800400 	str	q0, [x0, #16]
  4216e8:	3c9e0080 	stur	q0, [x4, #-32]
  4216ec:	d65f03c0 	ret
  4216f0:	3d800400 	str	q0, [x0, #16]
  4216f4:	ad010000 	stp	q0, q0, [x0, #32]
  4216f8:	ad3f0080 	stp	q0, q0, [x4, #-32]
  4216fc:	d65f03c0 	ret
--
  421720:	d1004063 	sub	x3, x3, #0x10
  421724:	d1014042 	sub	x2, x2, #0x50
  421728:	ad010060 	stp	q0, q0, [x3, #32]
  42172c:	ad820060 	stp	q0, q0, [x3, #64]!
  421730:	f1010042 	subs	x2, x2, #0x40
  421734:	54ffffa8 	b.hi	421728 <fgetc+0xe318>  // b.pmore
  421738:	ad3e0080 	stp	q0, q0, [x4, #-64]
  42173c:	ad3f0080 	stp	q0, q0, [x4, #-32]
  421740:	d65f03c0 	ret
--
  421780:	d50b7423 	dc	zva, x3
  421784:	91010063 	add	x3, x3, #0x40
  421788:	f1010042 	subs	x2, x2, #0x40
  42178c:	54ffffa8 	b.hi	421780 <fgetc+0xe370>  // b.pmore
  421790:	ad000060 	stp	q0, q0, [x3]
  421794:	ad010060 	stp	q0, q0, [x3, #32]
  421798:	ad3e0080 	stp	q0, q0, [x4, #-64]
  42179c:	ad3f0080 	stp	q0, q0, [x4, #-32]
  4217a0:	d65f03c0 	ret
--
  4217d0:	d50b7423 	dc	zva, x3
  4217d4:	91020063 	add	x3, x3, #0x80
  4217d8:	f1020042 	subs	x2, x2, #0x80
  4217dc:	54ffffa8 	b.hi	4217d0 <fgetc+0xe3c0>  // b.pmore
  4217e0:	ad3c0080 	stp	q0, q0, [x4, #-128]
  4217e4:	ad3d0080 	stp	q0, q0, [x4, #-96]
  4217e8:	ad3e0080 	stp	q0, q0, [x4, #-64]
  4217ec:	ad3f0080 	stp	q0, q0, [x4, #-32]
  4217f0:	d65f03c0 	ret
--
  421888:	f101805f 	cmp	x2, #0x60
  42188c:	540003c8 	b.hi	421904 <fgetc+0xe4f4>  // b.pmore
  421890:	f100405f 	cmp	x2, #0x10
  421894:	54000202 	b.cs	4218d4 <fgetc+0xe4c4>  // b.hs, b.nlast
  421898:	4e083c01 	mov	x1, v0.d[0]
  42189c:	361800a2 	tbz	w2, #3, 4218b0 <fgetc+0xe4a0>
  4218a0:	f9000001 	str	x1, [x0]
  4218a4:	f81f8081 	stur	x1, [x4, #-8]
  4218a8:	d65f03c0 	ret
  4218ac:	d503201f 	nop
  4218b0:	36100082 	tbz	w2, #2, 4218c0 <fgetc+0xe4b0>
  4218b4:	b9000001 	str	w1, [x0]
  4218b8:	b81fc081 	stur	w1, [x4, #-4]
  4218bc:	d65f03c0 	ret
  4218c0:	b4000082 	cbz	x2, 4218d0 <fgetc+0xe4c0>
  4218c4:	39000001 	strb	w1, [x0]
  4218c8:	36080042 	tbz	w2, #1, 4218d0 <fgetc+0xe4c0>
  4218cc:	781fe081 	sturh	w1, [x4, #-2]
  4218d0:	d65f03c0 	ret
  4218d4:	3d800000 	str	q0, [x0]
  4218d8:	373000c2 	tbnz	w2, #6, 4218f0 <fgetc+0xe4e0>
  4218dc:	3c9f0080 	stur	q0, [x4, #-16]
  4218e0:	36280062 	tbz	w2, #5, 4218ec <fgetc+0xe4dc>
  4218e4:	3d800400 	str	q0, [x0, #16]
  4218e8:	3c9e0080 	stur	q0, [x4, #-32]
  4218ec:	d65f03c0 	ret
  4218f0:	3d800400 	str	q0, [x0, #16]
  4218f4:	ad010000 	stp	q0, q0, [x0, #32]
  4218f8:	ad3f0080 	stp	q0, q0, [x4, #-32]
  4218fc:	d65f03c0 	ret
--
  421920:	d1004063 	sub	x3, x3, #0x10
  421924:	d1014042 	sub	x2, x2, #0x50
  421928:	ad010060 	stp	q0, q0, [x3, #32]
  42192c:	ad820060 	stp	q0, q0, [x3, #64]!
  421930:	f1010042 	subs	x2, x2, #0x40
  421934:	54ffffa8 	b.hi	421928 <fgetc+0xe518>  // b.pmore
  421938:	ad3e0080 	stp	q0, q0, [x4, #-64]
  42193c:	ad3f0080 	stp	q0, q0, [x4, #-32]
  421940:	d65f03c0 	ret
--
  421970:	d50b7423 	dc	zva, x3
  421974:	91010063 	add	x3, x3, #0x40
  421978:	f1010042 	subs	x2, x2, #0x40
  42197c:	54ffffa8 	b.hi	421970 <fgetc+0xe560>  // b.pmore
  421980:	ad000060 	stp	q0, q0, [x3]
  421984:	ad010060 	stp	q0, q0, [x3, #32]
  421988:	ad3e0080 	stp	q0, q0, [x4, #-64]
  42198c:	ad3f0080 	stp	q0, q0, [x4, #-32]
  421990:	d65f03c0 	ret
--
  4219cc:	8b020004 	add	x4, x0, x2
  4219d0:	f101805f 	cmp	x2, #0x60
  4219d4:	54000468 	b.hi	421a60 <fgetc+0xe650>  // b.pmore
  4219d8:	f100405f 	cmp	x2, #0x10
  4219dc:	540001e2 	b.cs	421a18 <fgetc+0xe608>  // b.hs, b.nlast
  4219e0:	36180082 	tbz	w2, #3, 4219f0 <fgetc+0xe5e0>
  4219e4:	f9000001 	str	x1, [x0]
  4219e8:	f81f8081 	stur	x1, [x4, #-8]
  4219ec:	d65f03c0 	ret
  4219f0:	36100082 	tbz	w2, #2, 421a00 <fgetc+0xe5f0>
  4219f4:	b9000001 	str	w1, [x0]
  4219f8:	b81fc081 	stur	w1, [x4, #-4]
  4219fc:	d65f03c0 	ret
  421a00:	b4000082 	cbz	x2, 421a10 <fgetc+0xe600>
  421a04:	39000001 	strb	w1, [x0]
  421a08:	36080042 	tbz	w2, #1, 421a10 <fgetc+0xe600>
  421a0c:	781fe081 	sturh	w1, [x4, #-2]
  421a10:	d65f03c0 	ret
  421a14:	d503201f 	nop
  421a18:	a9000401 	stp	x1, x1, [x0]
  421a1c:	37300122 	tbnz	w2, #6, 421a40 <fgetc+0xe630>
  421a20:	a93f0481 	stp	x1, x1, [x4, #-16]
  421a24:	36280062 	tbz	w2, #5, 421a30 <fgetc+0xe620>
  421a28:	a9010401 	stp	x1, x1, [x0, #16]
  421a2c:	a93e0481 	stp	x1, x1, [x4, #-32]
  421a30:	d65f03c0 	ret
  421a34:	d503201f 	nop
  421a38:	d503201f 	nop
  421a3c:	d503201f 	nop
  421a40:	a9010401 	stp	x1, x1, [x0, #16]
  421a44:	a9020401 	stp	x1, x1, [x0, #32]
  421a48:	a9030401 	stp	x1, x1, [x0, #48]
  421a4c:	a93e0481 	stp	x1, x1, [x4, #-32]
  421a50:	a93f0481 	stp	x1, x1, [x4, #-16]
  421a54:	d65f03c0 	ret
--
  421a7c:	a9840461 	stp	x1, x1, [x3, #64]!
  421a80:	f1010042 	subs	x2, x2, #0x40
  421a84:	54ffff62 	b.cs	421a70 <fgetc+0xe660>  // b.hs, b.nlast
  421a88:	36280062 	tbz	w2, #5, 421a94 <fgetc+0xe684>
  421a8c:	a9010461 	stp	x1, x1, [x3, #16]
  421a90:	a9020461 	stp	x1, x1, [x3, #32]
  421a94:	a93e0481 	stp	x1, x1, [x4, #-32]
  421a98:	a93f0481 	stp	x1, x1, [x4, #-16]
  421a9c:	d65f03c0 	ret
--
  421ad0:	f100405f 	cmp	x2, #0x10
  421ad4:	54000263 	b.cc	421b20 <fgetc+0xe710>  // b.lo, b.ul, b.last
  421ad8:	3d800000 	str	q0, [x0]
  421adc:	37300122 	tbnz	w2, #6, 421b00 <fgetc+0xe6f0>
  421ae0:	3c9f0080 	stur	q0, [x4, #-16]
  421ae4:	36280062 	tbz	w2, #5, 421af0 <fgetc+0xe6e0>
  421ae8:	3d800400 	str	q0, [x0, #16]
  421aec:	3c9e0080 	stur	q0, [x4, #-32]
  421af0:	d65f03c0 	ret
  421af4:	d503201f 	nop
  421af8:	d503201f 	nop
  421afc:	d503201f 	nop
  421b00:	ad008000 	stp	q0, q0, [x0, #16]
  421b04:	3d800c00 	str	q0, [x0, #48]
  421b08:	ad3e0080 	stp	q0, q0, [x4, #-64]
  421b0c:	ad3f0080 	stp	q0, q0, [x4, #-32]
  421b10:	d65f03c0 	ret
  421b14:	d503201f 	nop
  421b18:	d503201f 	nop
  421b1c:	d503201f 	nop
  421b20:	36180082 	tbz	w2, #3, 421b30 <fgetc+0xe720>
  421b24:	fd000000 	str	d0, [x0]
  421b28:	fc1f8080 	stur	d0, [x4, #-8]
  421b2c:	d65f03c0 	ret
  421b30:	36100082 	tbz	w2, #2, 421b40 <fgetc+0xe730>
  421b34:	bd000000 	str	s0, [x0]
  421b38:	bc1fc080 	stur	s0, [x4, #-4]
  421b3c:	d65f03c0 	ret
  421b40:	b4000082 	cbz	x2, 421b50 <fgetc+0xe740>
  421b44:	3d000000 	str	b0, [x0]
  421b48:	36080042 	tbz	w2, #1, 421b50 <fgetc+0xe740>
  421b4c:	7c1fe080 	stur	h0, [x4, #-2]
  421b50:	d65f03c0 	ret
--
  421b9c:	f1010042 	subs	x2, x2, #0x40
  421ba0:	540000a3 	b.cc	421bb4 <fgetc+0xe7a4>  // b.lo, b.ul, b.last
  421ba4:	ad010060 	stp	q0, q0, [x3, #32]
  421ba8:	ad820060 	stp	q0, q0, [x3, #64]!
  421bac:	f1010042 	subs	x2, x2, #0x40
  421bb0:	54fffe22 	b.cs	421b74 <fgetc+0xe764>  // b.hs, b.nlast
  421bb4:	ad3e0080 	stp	q0, q0, [x4, #-64]
  421bb8:	ad3f0080 	stp	q0, q0, [x4, #-32]
  421bbc:	d65f03c0 	ret
--
  421bec:	fa4008a0 	ccmp	x5, #0x0, #0x0, eq  // eq = none
  421bf0:	54000100 	b.eq	421c10 <fgetc+0xe800>  // b.none
  421bf4:	9a853084 	csel	x4, x4, x5, cc  // cc = lo, ul, last
  421bf8:	d2800100 	mov	x0, #0x8                   	// #8
  421bfc:	dac00c84 	rev	x4, x4
  421c00:	dac01084 	clz	x4, x4
  421c04:	9a8033e0 	csel	x0, xzr, x0, cc  // cc = lo, ul, last
  421c08:	8b440c00 	add	x0, x0, x4, lsr #3
  421c0c:	d65f03c0 	ret
--
  421c60:	54000120 	b.eq	421c84 <fgetc+0xe874>  // b.none
  421c64:	9a853084 	csel	x4, x4, x5, cc  // cc = lo, ul, last
  421c68:	cb000020 	sub	x0, x1, x0
  421c6c:	dac00c84 	rev	x4, x4
  421c70:	91002005 	add	x5, x0, #0x8
  421c74:	dac01084 	clz	x4, x4
  421c78:	9a853000 	csel	x0, x0, x5, cc  // cc = lo, ul, last
  421c7c:	8b440c00 	add	x0, x0, x4, lsr #3
  421c80:	d65f03c0 	ret
--
  421d2c:	fa4008a0 	ccmp	x5, #0x0, #0x0, eq  // eq = none
  421d30:	54000100 	b.eq	421d50 <fgetc+0xe940>  // b.none
  421d34:	9a853084 	csel	x4, x4, x5, cc  // cc = lo, ul, last
  421d38:	d2800100 	mov	x0, #0x8                   	// #8
  421d3c:	dac00c84 	rev	x4, x4
  421d40:	dac01084 	clz	x4, x4
  421d44:	9a8033e0 	csel	x0, xzr, x0, cc  // cc = lo, ul, last
  421d48:	8b440c00 	add	x0, x0, x4, lsr #3
  421d4c:	d65f03c0 	ret
--
  421d88:	f100005f 	cmp	x2, #0x0
  421d8c:	9a831042 	csel	x2, x2, x3, ne  // ne = any
  421d90:	cb000020 	sub	x0, x1, x0
  421d94:	dac00c42 	rev	x2, x2
  421d98:	91002005 	add	x5, x0, #0x8
  421d9c:	dac01044 	clz	x4, x2
  421da0:	9a851000 	csel	x0, x0, x5, ne  // ne = any
  421da4:	8b440c00 	add	x0, x0, x4, lsr #3
  421da8:	d65f03c0 	ret
--
  421f40:	f9400282 	ldr	x2, [x20]
  421f44:	eb020021 	subs	x1, x1, x2
  421f48:	d2800002 	mov	x2, #0x0                   	// #0
  421f4c:	54000321 	b.ne	421fb0 <fgetc+0xeba0>  // b.any
  421f50:	a94153f3 	ldp	x19, x20, [sp, #16]
  421f54:	a9425bf5 	ldp	x21, x22, [sp, #32]
  421f58:	f9401bf7 	ldr	x23, [sp, #48]
  421f5c:	a8cb7bfd 	ldp	x29, x30, [sp], #176
  421f60:	d65f03c0 	ret
--
  422174:	54000861 	b.ne	422280 <fgetc+0xee70>  // b.any
  422178:	aa1b03e0 	mov	x0, x27
  42217c:	a94153f3 	ldp	x19, x20, [sp, #16]
  422180:	a9425bf5 	ldp	x21, x22, [sp, #32]
  422184:	a94363f7 	ldp	x23, x24, [sp, #48]
  422188:	a9446bf9 	ldp	x25, x26, [sp, #64]
  42218c:	a94573fb 	ldp	x27, x28, [sp, #80]
  422190:	a8dc7bfd 	ldp	x29, x30, [sp], #448
  422194:	d65f03c0 	ret
--
  422320:	52800001 	mov	w1, #0x0                   	// #0
  422324:	94007989 	bl	440948 <fgetc+0x2d538>
  422328:	cb130013 	sub	x19, x0, x19
  42232c:	f100001f 	cmp	x0, #0x0
  422330:	9342fe60 	asr	x0, x19, #2
  422334:	9a941000 	csel	x0, x0, x20, ne  // ne = any
  422338:	a94153f3 	ldp	x19, x20, [sp, #16]
  42233c:	a8c27bfd 	ldp	x29, x30, [sp], #32
  422340:	d65f03c0 	ret
--
  42236c:	a9400660 	ldp	x0, x1, [x19]
  422370:	9400178e 	bl	4281a8 <fgetc+0x14d98>
  422374:	aa1303e0 	mov	x0, x19
  422378:	f9400bf3 	ldr	x19, [sp, #16]
  42237c:	a8c27bfd 	ldp	x29, x30, [sp], #32
  422380:	17ffec64 	b	41d510 <fgetc+0xa100>
  422384:	f9400bf3 	ldr	x19, [sp, #16]
  422388:	a8c27bfd 	ldp	x29, x30, [sp], #32
  42238c:	d65f03c0 	ret
--
  4223d8:	f945c673 	ldr	x19, [x19, #2952]
  4223dc:	f9401fe1 	ldr	x1, [sp, #56]
  4223e0:	f9400262 	ldr	x2, [x19]
  4223e4:	eb020021 	subs	x1, x1, x2
  4223e8:	d2800002 	mov	x2, #0x0                   	// #0
  4223ec:	54000121 	b.ne	422410 <fgetc+0xf000>  // b.any
  4223f0:	a94153f3 	ldp	x19, x20, [sp, #16]
  4223f4:	a8c47bfd 	ldp	x29, x30, [sp], #64
  4223f8:	d65f03c0 	ret
--
  42259c:	eb010000 	subs	x0, x0, x1
  4225a0:	d2800001 	mov	x1, #0x0                   	// #0
  4225a4:	540006a1 	b.ne	422678 <fgetc+0xf268>  // b.any
  4225a8:	910003bf 	mov	sp, x29
  4225ac:	a94153f3 	ldp	x19, x20, [sp, #16]
  4225b0:	a9425bf5 	ldp	x21, x22, [sp, #32]
  4225b4:	f9401bf7 	ldr	x23, [sp, #48]
  4225b8:	a8c57bfd 	ldp	x29, x30, [sp], #80
  4225bc:	d65f03c0 	ret
--
  422724:	aa1403e1 	mov	x1, x20
  422728:	9400bc82 	bl	451930 <fgetc+0x3e520>
  42272c:	7100041f 	cmp	w0, #0x1
  422730:	540000cc 	b.gt	422748 <fgetc+0xf338>
  422734:	35000355 	cbnz	w21, 42279c <fgetc+0xf38c>
  422738:	a94153f3 	ldp	x19, x20, [sp, #16]
  42273c:	f94013f5 	ldr	x21, [sp, #32]
  422740:	a8c37bfd 	ldp	x29, x30, [sp], #48
  422744:	d65f03c0 	ret
--
  4227e8:	97fffeea 	bl	422390 <fgetc+0xef80>
  4227ec:	aa0003e1 	mov	x1, x0
  4227f0:	f9000a61 	str	x1, [x19, #16]
  4227f4:	52800000 	mov	w0, #0x0                   	// #0
  4227f8:	b4000141 	cbz	x1, 422820 <fgetc+0xf410>
  4227fc:	a94153f3 	ldp	x19, x20, [sp, #16]
  422800:	f94013f5 	ldr	x21, [sp, #32]
  422804:	a8c37bfd 	ldp	x29, x30, [sp], #48
  422808:	d65f03c0 	ret
  42280c:	52800020 	mov	w0, #0x1                   	// #1
  422810:	a94153f3 	ldp	x19, x20, [sp, #16]
  422814:	f94013f5 	ldr	x21, [sp, #32]
  422818:	a8c37bfd 	ldp	x29, x30, [sp], #48
  42281c:	d65f03c0 	ret
--
  422a04:	540008e1 	b.ne	422b20 <fgetc+0xf710>  // b.any
  422a08:	aa1b03e0 	mov	x0, x27
  422a0c:	a94153f3 	ldp	x19, x20, [sp, #16]
  422a10:	a9425bf5 	ldp	x21, x22, [sp, #32]
  422a14:	a94363f7 	ldp	x23, x24, [sp, #48]
  422a18:	a9446bf9 	ldp	x25, x26, [sp, #64]
  422a1c:	a94573fb 	ldp	x27, x28, [sp, #80]
  422a20:	a8dc7bfd 	ldp	x29, x30, [sp], #448
  422a24:	d65f03c0 	ret
--
  422c9c:	f945c694 	ldr	x20, [x20, #2952]
  422ca0:	f9403fe1 	ldr	x1, [sp, #120]
  422ca4:	f9400282 	ldr	x2, [x20]
  422ca8:	eb020021 	subs	x1, x1, x2
  422cac:	d2800002 	mov	x2, #0x0                   	// #0
  422cb0:	54001701 	b.ne	422f90 <fgetc+0xfb80>  // b.any
  422cb4:	a94153f3 	ldp	x19, x20, [sp, #16]
  422cb8:	a8c87bfd 	ldp	x29, x30, [sp], #128
  422cbc:	d65f03c0 	ret
--
  422fa0:	17ffff3f 	b	422c9c <fgetc+0xf88c>
  422fa4:	d503201f 	nop
  422fa8:	d503201f 	nop
  422fac:	d503201f 	nop
  422fb0:	d2800f88 	mov	x8, #0x7c                  	// #124
  422fb4:	d4000001 	svc	#0x0
  422fb8:	b13ffc1f 	cmn	x0, #0xfff
  422fbc:	54000042 	b.cs	422fc4 <fgetc+0xfbb4>  // b.hs, b.nlast
  422fc0:	d65f03c0 	ret
--
  422ffc:	f945c673 	ldr	x19, [x19, #2952]
  423000:	f9401fe1 	ldr	x1, [sp, #56]
  423004:	f9400262 	ldr	x2, [x19]
  423008:	eb020021 	subs	x1, x1, x2
  42300c:	d2800002 	mov	x2, #0x0                   	// #0
  423010:	540000c1 	b.ne	423028 <fgetc+0xfc18>  // b.any
  423014:	f9400bf3 	ldr	x19, [sp, #16]
  423018:	a8c47bfd 	ldp	x29, x30, [sp], #64
  42301c:	d65f03c0 	ret
--
  423030:	2a0103e3 	mov	w3, w1
  423034:	aa0203e1 	mov	x1, x2
  423038:	350001c0 	cbnz	w0, 423070 <fgetc+0xfc60>
  42303c:	93407c60 	sxtw	x0, w3
  423040:	d2800a08 	mov	x8, #0x50                  	// #80
  423044:	d4000001 	svc	#0x0
  423048:	b140041f 	cmn	x0, #0x1, lsl #12
  42304c:	54000048 	b.hi	423054 <fgetc+0xfc44>  // b.pmore
  423050:	d65f03c0 	ret
  423054:	b0000361 	adrp	x1, 490000 <fgetc+0x7cbf0>
  423058:	f946e021 	ldr	x1, [x1, #3520]
  42305c:	d53bd042 	mrs	x2, tpidr_el0
  423060:	4b0003e3 	neg	w3, w0
  423064:	12800000 	mov	w0, #0xffffffff            	// #-1
  423068:	b8216843 	str	w3, [x2, x1]
  42306c:	d65f03c0 	ret
  423070:	b0000361 	adrp	x1, 490000 <fgetc+0x7cbf0>
  423074:	f946e021 	ldr	x1, [x1, #3520]
  423078:	d53bd042 	mrs	x2, tpidr_el0
  42307c:	528002c3 	mov	w3, #0x16                  	// #22
  423080:	12800000 	mov	w0, #0xffffffff            	// #-1
  423084:	b8216843 	str	w3, [x2, x1]
  423088:	d65f03c0 	ret
--
  423108:	f9400281 	ldr	x1, [x20]
  42310c:	eb010000 	subs	x0, x0, x1
  423110:	d2800001 	mov	x1, #0x0                   	// #0
  423114:	54000581 	b.ne	4231c4 <fgetc+0xfdb4>  // b.any
  423118:	2a1303e0 	mov	w0, w19
  42311c:	a94153f3 	ldp	x19, x20, [sp, #16]
  423120:	f94013f5 	ldr	x21, [sp, #32]
  423124:	a8c97bfd 	ldp	x29, x30, [sp], #144
  423128:	d65f03c0 	ret
--
  4231f4:	d4000001 	svc	#0x0
  4231f8:	aa0003f3 	mov	x19, x0
  4231fc:	b140041f 	cmn	x0, #0x1, lsl #12
  423200:	54000328 	b.hi	423264 <fgetc+0xfe54>  // b.pmore
  423204:	aa1303e0 	mov	x0, x19
  423208:	a94153f3 	ldp	x19, x20, [sp, #16]
  42320c:	a9425bf5 	ldp	x21, x22, [sp, #32]
  423210:	a8c37bfd 	ldp	x29, x30, [sp], #48
  423214:	d65f03c0 	ret
--
  423240:	b140041f 	cmn	x0, #0x1, lsl #12
  423244:	540001c8 	b.hi	42327c <fgetc+0xfe6c>  // b.pmore
  423248:	2a0303e0 	mov	w0, w3
  42324c:	9400725b 	bl	43fbb8 <fgetc+0x2c7a8>
  423250:	aa1303e0 	mov	x0, x19
  423254:	a94153f3 	ldp	x19, x20, [sp, #16]
  423258:	a9425bf5 	ldp	x21, x22, [sp, #32]
  42325c:	a8c37bfd 	ldp	x29, x30, [sp], #48
  423260:	d65f03c0 	ret
--
  4232c4:	d4000001 	svc	#0x0
  4232c8:	aa0003f3 	mov	x19, x0
  4232cc:	b140041f 	cmn	x0, #0x1, lsl #12
  4232d0:	54000328 	b.hi	423334 <fgetc+0xff24>  // b.pmore
  4232d4:	aa1303e0 	mov	x0, x19
  4232d8:	a94153f3 	ldp	x19, x20, [sp, #16]
  4232dc:	a9425bf5 	ldp	x21, x22, [sp, #32]
  4232e0:	a8c37bfd 	ldp	x29, x30, [sp], #48
  4232e4:	d65f03c0 	ret
--
  423310:	b140041f 	cmn	x0, #0x1, lsl #12
  423314:	540001c8 	b.hi	42334c <fgetc+0xff3c>  // b.pmore
  423318:	2a0303e0 	mov	w0, w3
  42331c:	94007227 	bl	43fbb8 <fgetc+0x2c7a8>
  423320:	aa1303e0 	mov	x0, x19
  423324:	a94153f3 	ldp	x19, x20, [sp, #16]
  423328:	a9425bf5 	ldp	x21, x22, [sp, #32]
  42332c:	a8c37bfd 	ldp	x29, x30, [sp], #48
  423330:	d65f03c0 	ret
--
  423360:	17ffffee 	b	423318 <fgetc+0xff08>
  423364:	d503201f 	nop
  423368:	93407c00 	sxtw	x0, w0
  42336c:	93407c42 	sxtw	x2, w2
  423370:	d28007c8 	mov	x8, #0x3e                  	// #62
  423374:	d4000001 	svc	#0x0
  423378:	b140041f 	cmn	x0, #0x1, lsl #12
  42337c:	54000048 	b.hi	423384 <fgetc+0xff74>  // b.pmore
  423380:	d65f03c0 	ret
  423384:	b0000361 	adrp	x1, 490000 <fgetc+0x7cbf0>
  423388:	f946e021 	ldr	x1, [x1, #3520]
  42338c:	d53bd042 	mrs	x2, tpidr_el0
  423390:	4b0003e3 	neg	w3, w0
  423394:	92800000 	mov	x0, #0xffffffffffffffff    	// #-1
  423398:	b8216843 	str	w3, [x2, x1]
  42339c:	d65f03c0 	ret
--
  423418:	eb010000 	subs	x0, x0, x1
  42341c:	d2800001 	mov	x1, #0x0                   	// #0
  423420:	54002e81 	b.ne	4239f0 <fgetc+0x105e0>  // b.any
  423424:	aa1303e0 	mov	x0, x19
  423428:	a94153f3 	ldp	x19, x20, [sp, #16]
  42342c:	a9425bf5 	ldp	x21, x22, [sp, #32]
  423430:	a94363f7 	ldp	x23, x24, [sp, #48]
  423434:	a8d57bfd 	ldp	x29, x30, [sp], #336
  423438:	d65f03c0 	ret
--
  423a1c:	f9404bf3 	ldr	x19, [sp, #144]
  423a20:	17ffff7d 	b	423814 <fgetc+0x10404>
  423a24:	d503201f 	nop
  423a28:	93407c00 	sxtw	x0, w0
  423a2c:	d2800728 	mov	x8, #0x39                  	// #57
  423a30:	d4000001 	svc	#0x0
  423a34:	b140041f 	cmn	x0, #0x1, lsl #12
  423a38:	54000048 	b.hi	423a40 <fgetc+0x10630>  // b.pmore
  423a3c:	d65f03c0 	ret
  423a40:	b0000361 	adrp	x1, 490000 <fgetc+0x7cbf0>
  423a44:	f946e021 	ldr	x1, [x1, #3520]
  423a48:	d53bd042 	mrs	x2, tpidr_el0
  423a4c:	4b0003e3 	neg	w3, w0
  423a50:	12800000 	mov	w0, #0xffffffff            	// #-1
  423a54:	b8216843 	str	w3, [x2, x1]
  423a58:	d65f03c0 	ret
--
  423a98:	54000348 	b.hi	423b00 <fgetc+0x106f0>  // b.pmore
  423a9c:	f945c463 	ldr	x3, [x3, #2952]
  423aa0:	f9400fe1 	ldr	x1, [sp, #24]
  423aa4:	f9400062 	ldr	x2, [x3]
  423aa8:	eb020021 	subs	x1, x1, x2
  423aac:	d2800002 	mov	x2, #0x0                   	// #0
  423ab0:	54000361 	b.ne	423b1c <fgetc+0x1070c>  // b.any
  423ab4:	a8c27bfd 	ldp	x29, x30, [sp], #32
  423ab8:	d65f03c0 	ret
--
  423b5c:	97ffffc1 	bl	423a60 <fgetc+0x10650>
  423b60:	f94027e1 	ldr	x1, [sp, #72]
  423b64:	f9400262 	ldr	x2, [x19]
  423b68:	eb020021 	subs	x1, x1, x2
  423b6c:	d2800002 	mov	x2, #0x0                   	// #0
  423b70:	54000081 	b.ne	423b80 <fgetc+0x10770>  // b.any
  423b74:	f9400bf3 	ldr	x19, [sp, #16]
  423b78:	a8c67bfd 	ldp	x29, x30, [sp], #96
  423b7c:	d65f03c0 	ret
--
  423bd8:	540002a8 	b.hi	423c2c <fgetc+0x1081c>  // b.pmore
  423bdc:	f945c484 	ldr	x4, [x4, #2952]
  423be0:	f9401fe1 	ldr	x1, [sp, #56]
  423be4:	f9400082 	ldr	x2, [x4]
  423be8:	eb020021 	subs	x1, x1, x2
  423bec:	d2800002 	mov	x2, #0x0                   	// #0
  423bf0:	540002c1 	b.ne	423c48 <fgetc+0x10838>  // b.any
  423bf4:	a8c57bfd 	ldp	x29, x30, [sp], #80
  423bf8:	d65f03c0 	ret
--
  423c9c:	540002c8 	b.hi	423cf4 <fgetc+0x108e4>  // b.pmore
  423ca0:	f945c484 	ldr	x4, [x4, #2952]
  423ca4:	f9401fe1 	ldr	x1, [sp, #56]
  423ca8:	f9400082 	ldr	x2, [x4]
  423cac:	eb020021 	subs	x1, x1, x2
  423cb0:	d2800002 	mov	x2, #0x0                   	// #0
  423cb4:	540002e1 	b.ne	423d10 <fgetc+0x10900>  // b.any
  423cb8:	a8c57bfd 	ldp	x29, x30, [sp], #80
  423cbc:	d65f03c0 	ret
--
  423d0c:	17ffffe5 	b	423ca0 <fgetc+0x10890>
  423d10:	9400063c 	bl	425600 <fgetc+0x121f0>
  423d14:	d503201f 	nop
  423d18:	93407c00 	sxtw	x0, w0
  423d1c:	d28007e8 	mov	x8, #0x3f                  	// #63
  423d20:	d4000001 	svc	#0x0
  423d24:	b140041f 	cmn	x0, #0x1, lsl #12
  423d28:	54000048 	b.hi	423d30 <fgetc+0x10920>  // b.pmore
  423d2c:	d65f03c0 	ret
  423d30:	b0000361 	adrp	x1, 490000 <fgetc+0x7cbf0>
  423d34:	f946e021 	ldr	x1, [x1, #3520]
  423d38:	d53bd042 	mrs	x2, tpidr_el0
  423d3c:	4b0003e3 	neg	w3, w0
  423d40:	92800000 	mov	x0, #0xffffffffffffffff    	// #-1
  423d44:	b8216843 	str	w3, [x2, x1]
  423d48:	d65f03c0 	ret
  423d4c:	d503201f 	nop
  423d50:	93407c00 	sxtw	x0, w0
  423d54:	d2800808 	mov	x8, #0x40                  	// #64
  423d58:	d4000001 	svc	#0x0
  423d5c:	b140041f 	cmn	x0, #0x1, lsl #12
  423d60:	54000048 	b.hi	423d68 <fgetc+0x10958>  // b.pmore
  423d64:	d65f03c0 	ret
  423d68:	b0000361 	adrp	x1, 490000 <fgetc+0x7cbf0>
  423d6c:	f946e021 	ldr	x1, [x1, #3520]
  423d70:	d53bd042 	mrs	x2, tpidr_el0
  423d74:	4b0003e3 	neg	w3, w0
  423d78:	92800000 	mov	x0, #0xffffffffffffffff    	// #-1
  423d7c:	b8216843 	str	w3, [x2, x1]
  423d80:	d65f03c0 	ret
--
  423d88:	aa0103e3 	mov	x3, x1
  423d8c:	d2800002 	mov	x2, #0x0                   	// #0
  423d90:	2a0003e1 	mov	w1, w0
  423d94:	d28020a8 	mov	x8, #0x105                 	// #261
  423d98:	d2800000 	mov	x0, #0x0                   	// #0
  423d9c:	d4000001 	svc	#0x0
  423da0:	b140041f 	cmn	x0, #0x1, lsl #12
  423da4:	54000048 	b.hi	423dac <fgetc+0x1099c>  // b.pmore
  423da8:	d65f03c0 	ret
  423dac:	b0000361 	adrp	x1, 490000 <fgetc+0x7cbf0>
  423db0:	f946e021 	ldr	x1, [x1, #3520]
  423db4:	d53bd042 	mrs	x2, tpidr_el0
  423db8:	4b0003e3 	neg	w3, w0
  423dbc:	12800000 	mov	w0, #0xffffffff            	// #-1
  423dc0:	b8216843 	str	w3, [x2, x1]
  423dc4:	d65f03c0 	ret
--
  423e18:	d53bd041 	mrs	x1, tpidr_el0
  423e1c:	52800182 	mov	w2, #0xc                   	// #12
  423e20:	92800014 	mov	x20, #0xffffffffffffffff    	// #-1
  423e24:	b8206822 	str	w2, [x1, x0]
  423e28:	aa1403e0 	mov	x0, x20
  423e2c:	a94153f3 	ldp	x19, x20, [sp, #16]
  423e30:	f94013f5 	ldr	x21, [sp, #32]
  423e34:	a8c37bfd 	ldp	x29, x30, [sp], #48
  423e38:	d65f03c0 	ret
--
  423e64:	8b130280 	add	x0, x20, x19
  423e68:	9400757e 	bl	441460 <fgetc+0x2e050>
  423e6c:	36fffde0 	tbz	w0, #31, 423e28 <fgetc+0x10a18>
  423e70:	92800014 	mov	x20, #0xffffffffffffffff    	// #-1
  423e74:	aa1403e0 	mov	x0, x20
  423e78:	a94153f3 	ldp	x19, x20, [sp, #16]
  423e7c:	f94013f5 	ldr	x21, [sp, #32]
  423e80:	a8c37bfd 	ldp	x29, x30, [sp], #48
  423e84:	d65f03c0 	ret
  423e88:	b0000360 	adrp	x0, 490000 <fgetc+0x7cbf0>
  423e8c:	f947d800 	ldr	x0, [x0, #4016]
  423e90:	f9400000 	ldr	x0, [x0]
  423e94:	b4000040 	cbz	x0, 423e9c <fgetc+0x10a8c>
  423e98:	d65f03c0 	ret
--
  423f04:	1a80a020 	csel	w0, w1, w0, ge  // ge = tcont
  423f08:	f9401fe1 	ldr	x1, [sp, #56]
  423f0c:	f9400262 	ldr	x2, [x19]
  423f10:	eb020021 	subs	x1, x1, x2
  423f14:	d2800002 	mov	x2, #0x0                   	// #0
  423f18:	54000081 	b.ne	423f28 <fgetc+0x10b18>  // b.any
  423f1c:	f9400bf3 	ldr	x19, [sp, #16]
  423f20:	a8c47bfd 	ldp	x29, x30, [sp], #64
  423f24:	d65f03c0 	ret
--
  423f34:	54000121 	b.ne	423f58 <fgetc+0x10b48>  // b.any
  423f38:	93407c42 	sxtw	x2, w2
  423f3c:	93407c63 	sxtw	x3, w3
  423f40:	93407c84 	sxtw	x4, w4
  423f44:	d2801bc8 	mov	x8, #0xde                  	// #222
  423f48:	d4000001 	svc	#0x0
  423f4c:	b140041f 	cmn	x0, #0x1, lsl #12
  423f50:	54000128 	b.hi	423f74 <fgetc+0x10b64>  // b.pmore
  423f54:	d65f03c0 	ret
  423f58:	b0000361 	adrp	x1, 490000 <fgetc+0x7cbf0>
  423f5c:	f946e021 	ldr	x1, [x1, #3520]
  423f60:	d53bd042 	mrs	x2, tpidr_el0
  423f64:	528002c3 	mov	w3, #0x16                  	// #22
  423f68:	92800000 	mov	x0, #0xffffffffffffffff    	// #-1
  423f6c:	b8216843 	str	w3, [x2, x1]
  423f70:	d65f03c0 	ret
  423f74:	b0000361 	adrp	x1, 490000 <fgetc+0x7cbf0>
  423f78:	f946e021 	ldr	x1, [x1, #3520]
  423f7c:	d53bd042 	mrs	x2, tpidr_el0
  423f80:	4b0003e3 	neg	w3, w0
  423f84:	92800000 	mov	x0, #0xffffffffffffffff    	// #-1
  423f88:	b8216843 	str	w3, [x2, x1]
  423f8c:	d65f03c0 	ret
  423f90:	d2801ae8 	mov	x8, #0xd7                  	// #215
  423f94:	d4000001 	svc	#0x0
  423f98:	b13ffc1f 	cmn	x0, #0xfff
  423f9c:	54000042 	b.cs	423fa4 <fgetc+0x10b94>  // b.hs, b.nlast
  423fa0:	d65f03c0 	ret
  423fa4:	14000ba5 	b	426e38 <fgetc+0x13a28>
  423fa8:	d503201f 	nop
  423fac:	d503201f 	nop
  423fb0:	d2801c48 	mov	x8, #0xe2                  	// #226
  423fb4:	d4000001 	svc	#0x0
  423fb8:	b13ffc1f 	cmn	x0, #0xfff
  423fbc:	54000042 	b.cs	423fc4 <fgetc+0x10bb4>  // b.hs, b.nlast
  423fc0:	d65f03c0 	ret
  423fc4:	14000b9d 	b	426e38 <fgetc+0x13a28>
  423fc8:	d503201f 	nop
  423fcc:	d503201f 	nop
  423fd0:	d2801d28 	mov	x8, #0xe9                  	// #233
  423fd4:	d4000001 	svc	#0x0
  423fd8:	b13ffc1f 	cmn	x0, #0xfff
  423fdc:	54000042 	b.cs	423fe4 <fgetc+0x10bd4>  // b.hs, b.nlast
  423fe0:	d65f03c0 	ret
--
  42429c:	92400061 	and	x1, x3, #0x1
  4242a0:	aa050025 	orr	x5, x1, x5
  4242a4:	f9000485 	str	x5, [x4, #8]
  4242a8:	f9000806 	str	x6, [x0, #16]
  4242ac:	f9400041 	ldr	x1, [x2]
  4242b0:	92400021 	and	x1, x1, #0x1
  4242b4:	aa000020 	orr	x0, x1, x0
  4242b8:	f9000040 	str	x0, [x2]
  4242bc:	d65f03c0 	ret
--
  4242f8:	f9000480 	str	x0, [x4, #8]
  4242fc:	37f80103 	tbnz	w3, #31, 42431c <fgetc+0x10f0c>
  424300:	f9400420 	ldr	x0, [x1, #8]
  424304:	927ff802 	and	x2, x0, #0xfffffffffffffffe
  424308:	92400000 	and	x0, x0, #0x1
  42430c:	f9000882 	str	x2, [x4, #16]
  424310:	aa040004 	orr	x4, x0, x4
  424314:	f9000424 	str	x4, [x1, #8]
  424318:	d65f03c0 	ret
  42431c:	f9400820 	ldr	x0, [x1, #16]
  424320:	b2400000 	orr	x0, x0, #0x1
  424324:	f9000480 	str	x0, [x4, #8]
  424328:	f9000824 	str	x4, [x1, #16]
  42432c:	d65f03c0 	ret
--
  424480:	97ffff56 	bl	4241d8 <fgetc+0x10dc8>
  424484:	a94153f3 	ldp	x19, x20, [sp, #16]
  424488:	a9425bf5 	ldp	x21, x22, [sp, #32]
  42448c:	a94363f7 	ldp	x23, x24, [sp, #48]
  424490:	a9446bf9 	ldp	x25, x26, [sp, #64]
  424494:	aa1b03e0 	mov	x0, x27
  424498:	a94573fb 	ldp	x27, x28, [sp, #80]
  42449c:	a8c77bfd 	ldp	x29, x30, [sp], #112
  4244a0:	d65f03c0 	ret
  4244a4:	aa1b03e0 	mov	x0, x27
  4244a8:	a94153f3 	ldp	x19, x20, [sp, #16]
  4244ac:	a9425bf5 	ldp	x21, x22, [sp, #32]
  4244b0:	a94363f7 	ldp	x23, x24, [sp, #48]
  4244b4:	a9446bf9 	ldp	x25, x26, [sp, #64]
  4244b8:	a94573fb 	ldp	x27, x28, [sp, #80]
  4244bc:	a8c77bfd 	ldp	x29, x30, [sp], #112
  4244c0:	d65f03c0 	ret
--
  424530:	7100001f 	cmp	w0, #0x0
  424534:	91002263 	add	x3, x19, #0x8
  424538:	91004261 	add	x1, x19, #0x10
  42453c:	35fffec0 	cbnz	w0, 424514 <fgetc+0x11104>
  424540:	aa1303e0 	mov	x0, x19
  424544:	a94153f3 	ldp	x19, x20, [sp, #16]
  424548:	f94013f5 	ldr	x21, [sp, #32]
  42454c:	a8c37bfd 	ldp	x29, x30, [sp], #48
  424550:	d65f03c0 	ret
  424554:	f94013f5 	ldr	x21, [sp, #32]
  424558:	d2800013 	mov	x19, #0x0                   	// #0
  42455c:	aa1303e0 	mov	x0, x19
  424560:	a94153f3 	ldp	x19, x20, [sp, #16]
  424564:	a8c37bfd 	ldp	x29, x30, [sp], #48
  424568:	d65f03c0 	ret
--
  424650:	910003bf 	mov	sp, x29
  424654:	aa1303e0 	mov	x0, x19
  424658:	a94153f3 	ldp	x19, x20, [sp, #16]
  42465c:	a9425bf5 	ldp	x21, x22, [sp, #32]
  424660:	a94363f7 	ldp	x23, x24, [sp, #48]
  424664:	a9446bf9 	ldp	x25, x26, [sp, #64]
  424668:	a94573fb 	ldp	x27, x28, [sp, #80]
  42466c:	a8c87bfd 	ldp	x29, x30, [sp], #128
  424670:	d65f03c0 	ret
--
  424b24:	17ffff2a 	b	4247cc <fgetc+0x113bc>
  424b28:	b4ffed22 	cbz	x2, 4248cc <fgetc+0x114bc>
  424b2c:	f9400441 	ldr	x1, [x2, #8]
  424b30:	17ffff9a 	b	424998 <fgetc+0x11588>
  424b34:	940002b3 	bl	425600 <fgetc+0x121f0>
  424b38:	f100001f 	cmp	x0, #0x0
  424b3c:	fa401824 	ccmp	x1, #0x0, #0x4, ne  // ne = any
  424b40:	54000041 	b.ne	424b48 <fgetc+0x11738>  // b.any
  424b44:	d65f03c0 	ret
  424b48:	52800002 	mov	w2, #0x0                   	// #0
  424b4c:	17fffd27 	b	423fe8 <fgetc+0x10bd8>
  424b50:	f100001f 	cmp	x0, #0x0
  424b54:	fa401824 	ccmp	x1, #0x0, #0x4, ne  // ne = any
  424b58:	54000041 	b.ne	424b60 <fgetc+0x11750>  // b.any
  424b5c:	d65f03c0 	ret
  424b60:	17fffd52 	b	4240a8 <fgetc+0x10c98>
  424b64:	d503201f 	nop
  424b68:	b4000040 	cbz	x0, 424b70 <fgetc+0x11760>
  424b6c:	17fffd7f 	b	424168 <fgetc+0x10d58>
  424b70:	d65f03c0 	ret
--
  424be0:	54000840 	b.eq	424ce8 <fgetc+0x118d8>  // b.none
  424be4:	aa1403e0 	mov	x0, x20
  424be8:	a94153f3 	ldp	x19, x20, [sp, #16]
  424bec:	a9425bf5 	ldp	x21, x22, [sp, #32]
  424bf0:	a94363f7 	ldp	x23, x24, [sp, #48]
  424bf4:	a9446bf9 	ldp	x25, x26, [sp, #64]
  424bf8:	f9402bfb 	ldr	x27, [sp, #80]
  424bfc:	a8c67bfd 	ldp	x29, x30, [sp], #96
  424c00:	d65f03c0 	ret
--
  424ce8:	d2800014 	mov	x20, #0x0                   	// #0
  424cec:	aa1403e0 	mov	x0, x20
  424cf0:	a94153f3 	ldp	x19, x20, [sp, #16]
  424cf4:	a9425bf5 	ldp	x21, x22, [sp, #32]
  424cf8:	a94363f7 	ldp	x23, x24, [sp, #48]
  424cfc:	a9446bf9 	ldp	x25, x26, [sp, #64]
  424d00:	f9402bfb 	ldr	x27, [sp, #80]
  424d04:	a8c67bfd 	ldp	x29, x30, [sp], #96
  424d08:	d65f03c0 	ret
--
  424d78:	f100045f 	cmp	x2, #0x1
  424d7c:	540000a9 	b.ls	424d90 <fgetc+0x11980>  // b.plast
  424d80:	d341fc42 	lsr	x2, x2, #1
  424d84:	d341fc00 	lsr	x0, x0, #1
  424d88:	f100045f 	cmp	x2, #0x1
  424d8c:	54ffffa1 	b.ne	424d80 <fgetc+0x11970>  // b.any
  424d90:	a94153f3 	ldp	x19, x20, [sp, #16]
  424d94:	a8c27bfd 	ldp	x29, x30, [sp], #32
  424d98:	d65f03c0 	ret
--
  424f78:	910003bf 	mov	sp, x29
  424f7c:	2a1303e0 	mov	w0, w19
  424f80:	a94153f3 	ldp	x19, x20, [sp, #16]
  424f84:	a9425bf5 	ldp	x21, x22, [sp, #32]
  424f88:	a94363f7 	ldp	x23, x24, [sp, #48]
  424f8c:	a9446bf9 	ldp	x25, x26, [sp, #64]
  424f90:	a94573fb 	ldp	x27, x28, [sp, #80]
  424f94:	a8ca7bfd 	ldp	x29, x30, [sp], #160
  424f98:	d65f03c0 	ret
--
  42515c:	f94027e0 	ldr	x0, [sp, #72]
  425160:	f94002a1 	ldr	x1, [x21]
  425164:	eb010000 	subs	x0, x0, x1
  425168:	d2800001 	mov	x1, #0x0                   	// #0
  42516c:	54000101 	b.ne	42518c <fgetc+0x11d7c>  // b.any
  425170:	2a1603e0 	mov	w0, w22
  425174:	a9425bf5 	ldp	x21, x22, [sp, #32]
  425178:	a8c57bfd 	ldp	x29, x30, [sp], #80
  42517c:	d65f03c0 	ret
--
  425240:	940000f0 	bl	425600 <fgetc+0x121f0>
  425244:	d503201f 	nop
  425248:	f0000341 	adrp	x1, 490000 <fgetc+0x7cbf0>
  42524c:	52800c82 	mov	w2, #0x64                  	// #100
  425250:	f9473821 	ldr	x1, [x1, #3696]
  425254:	b9400020 	ldr	w0, [x1]
  425258:	7100001f 	cmp	w0, #0x0
  42525c:	1a821000 	csel	w0, w0, w2, ne  // ne = any
  425260:	d65f03c0 	ret
--
  425294:	90000361 	adrp	x1, 491000 <.got+0x4d0>
  425298:	9a800694 	csinc	x20, x20, x0, eq  // eq = none
  42529c:	913ca022 	add	x2, x1, #0xf28
  4252a0:	f9079434 	str	x20, [x1, #3880]
  4252a4:	f9400260 	ldr	x0, [x19]
  4252a8:	f9000440 	str	x0, [x2, #8]
  4252ac:	a94153f3 	ldp	x19, x20, [sp, #16]
  4252b0:	a8c27bfd 	ldp	x29, x30, [sp], #32
  4252b4:	d65f03c0 	ret
  4252b8:	d65f03c0 	ret
  4252bc:	d503201f 	nop
  4252c0:	d2801b08 	mov	x8, #0xd8                  	// #216
  4252c4:	d4000001 	svc	#0x0
  4252c8:	b13ffc1f 	cmn	x0, #0xfff
  4252cc:	54000042 	b.cs	4252d4 <fgetc+0x11ec4>  // b.hs, b.nlast
  4252d0:	d65f03c0 	ret
  4252d4:	140006d9 	b	426e38 <fgetc+0x13a28>
  4252d8:	d503201f 	nop
  4252dc:	d503201f 	nop
  4252e0:	d2801668 	mov	x8, #0xb3                  	// #179
  4252e4:	d4000001 	svc	#0x0
  4252e8:	b13ffc1f 	cmn	x0, #0xfff
  4252ec:	54000042 	b.cs	4252f4 <fgetc+0x11ee4>  // b.hs, b.nlast
  4252f0:	d65f03c0 	ret
--
  425360:	35fffea1 	cbnz	w1, 425334 <fgetc+0x11f24>
  425364:	b940d2c0 	ldr	w0, [x22, #208]
  425368:	8b000294 	add	x20, x20, x0
  42536c:	91002294 	add	x20, x20, #0x8
  425370:	f8747ac0 	ldr	x0, [x22, x20, lsl #3]
  425374:	a94153f3 	ldp	x19, x20, [sp, #16]
  425378:	a9425bf5 	ldp	x21, x22, [sp, #32]
  42537c:	a8c37bfd 	ldp	x29, x30, [sp], #48
  425380:	d65f03c0 	ret
  425384:	d2800000 	mov	x0, #0x0                   	// #0
  425388:	a94153f3 	ldp	x19, x20, [sp, #16]
  42538c:	a9425bf5 	ldp	x21, x22, [sp, #32]
  425390:	a8c37bfd 	ldp	x29, x30, [sp], #48
  425394:	d65f03c0 	ret
--
  4253b4:	34000103 	cbz	w3, 4253d4 <fgetc+0x11fc4>
  4253b8:	29411022 	ldp	w2, w4, [x1, #8]
  4253bc:	2a0303e3 	mov	w3, w3
  4253c0:	1ac22402 	lsr	w2, w0, w2
  4253c4:	0a040042 	and	w2, w2, w4
  4253c8:	8b224862 	add	x2, x3, w2, uxtw #2
  4253cc:	b8626822 	ldr	w2, [x1, x2]
  4253d0:	35000042 	cbnz	w2, 4253d8 <fgetc+0x11fc8>
  4253d4:	d65f03c0 	ret
  4253d8:	b9401023 	ldr	w3, [x1, #16]
  4253dc:	2a0203e2 	mov	w2, w2
  4253e0:	0a030003 	and	w3, w0, w3
  4253e4:	8b234842 	add	x2, x2, w3, uxtw #2
  4253e8:	b8626821 	ldr	w1, [x1, x2]
  4253ec:	0b010000 	add	w0, w0, w1
  4253f0:	d65f03c0 	ret
--
  425580:	f9400382 	ldr	x2, [x28]
  425584:	eb020021 	subs	x1, x1, x2
  425588:	d2800002 	mov	x2, #0x0                   	// #0
  42558c:	54000341 	b.ne	4255f4 <fgetc+0x121e4>  // b.any
  425590:	a94153f3 	ldp	x19, x20, [sp, #16]
  425594:	a9425bf5 	ldp	x21, x22, [sp, #32]
  425598:	a94573fb 	ldp	x27, x28, [sp, #80]
  42559c:	a8c97bfd 	ldp	x29, x30, [sp], #144
  4255a0:	d65f03c0 	ret
--
  425628:	aa0003f4 	mov	x20, x0
  42562c:	9126e273 	add	x19, x19, #0x9b8
  425630:	aa1403e2 	mov	x2, x20
  425634:	aa1303e1 	mov	x1, x19
  425638:	52800020 	mov	w0, #0x1                   	// #1
  42563c:	97ffb847 	bl	413758 <fgetc+0x348>
  425640:	17fffffc 	b	425630 <fgetc+0x12220>
  425644:	d503201f 	nop
  425648:	d65f03c0 	ret
--
  425694:	90000004 	adrp	x4, 425000 <fgetc+0x11bf0>
  425698:	91192084 	add	x4, x4, #0x648
  42569c:	f947f0a5 	ldr	x5, [x5, #4064]
  4256a0:	d37ef442 	lsl	x2, x2, #2
  4256a4:	cb010041 	sub	x1, x2, x1
  4256a8:	f86178a1 	ldr	x1, [x5, x1, lsl #3]
  4256ac:	a9009001 	stp	x1, x4, [x0, #8]
  4256b0:	f9001003 	str	x3, [x0, #32]
  4256b4:	d65f03c0 	ret
--
  425700:	a9410803 	ldp	x3, x2, [x0, #16]
  425704:	54000109 	b.ls	425724 <fgetc+0x12314>  // b.plast
  425708:	eb03003f 	cmp	x1, x3
  42570c:	fa422022 	ccmp	x1, x2, #0x2, cs  // cs = hs, nlast
  425710:	54000088 	b.hi	425720 <fgetc+0x12310>  // b.pmore
  425714:	52800022 	mov	w2, #0x1                   	// #1
  425718:	f9001001 	str	x1, [x0, #32]
  42571c:	3900a002 	strb	w2, [x0, #40]
  425720:	d65f03c0 	ret
--
  425738:	a9410c04 	ldp	x4, x3, [x0, #16]
  42573c:	eb04003f 	cmp	x1, x4
  425740:	fa432022 	ccmp	x1, x3, #0x2, cs  // cs = hs, nlast
  425744:	54fffee8 	b.hi	425720 <fgetc+0x12310>  // b.pmore
  425748:	f9001001 	str	x1, [x0, #32]
  42574c:	3900a002 	strb	w2, [x0, #40]
  425750:	17fffff4 	b	425720 <fgetc+0x12310>
  425754:	f9001001 	str	x1, [x0, #32]
  425758:	d65f03c0 	ret
--
  425774:	71000c1f 	cmp	w0, #0x3
  425778:	54000101 	b.ne	425798 <fgetc+0x12388>  // b.any
  42577c:	52800020 	mov	w0, #0x1                   	// #1
  425780:	3900a260 	strb	w0, [x19, #40]
  425784:	aa1303e0 	mov	x0, x19
  425788:	97ffffd8 	bl	4256e8 <fgetc+0x122d8>
  42578c:	f9400bf3 	ldr	x19, [sp, #16]
  425790:	a8c37bfd 	ldp	x29, x30, [sp], #48
  425794:	d65f03c0 	ret
--
  42579c:	d2800001 	mov	x1, #0x0                   	// #0
  4257a0:	94008c6c 	bl	448950 <fgetc+0x35540>
  4257a4:	f90017e0 	str	x0, [sp, #40]
  4257a8:	9100a3e1 	add	x1, sp, #0x28
  4257ac:	aa1303e0 	mov	x0, x19
  4257b0:	97ffffce 	bl	4256e8 <fgetc+0x122d8>
  4257b4:	f9400bf3 	ldr	x19, [sp, #16]
  4257b8:	a8c37bfd 	ldp	x29, x30, [sp], #48
  4257bc:	d65f03c0 	ret
--
  4258f4:	aa1803f5 	mov	x21, x24
  4258f8:	b5fff8f5 	cbnz	x21, 425814 <fgetc+0x12404>
  4258fc:	a94153f3 	ldp	x19, x20, [sp, #16]
  425900:	a9425bf5 	ldp	x21, x22, [sp, #32]
  425904:	a94363f7 	ldp	x23, x24, [sp, #48]
  425908:	a9446bf9 	ldp	x25, x26, [sp, #64]
  42590c:	a94573fb 	ldp	x27, x28, [sp, #80]
  425910:	a8c87bfd 	ldp	x29, x30, [sp], #128
  425914:	d65f03c0 	ret
--
  425ca0:	cb040021 	sub	x1, x1, x4
  425ca4:	f100005f 	cmp	x2, #0x0
  425ca8:	1a9f07e4 	cset	w4, ne  // ne = any
  425cac:	d37df021 	lsl	x1, x1, #3
  425cb0:	8b010060 	add	x0, x3, x1
  425cb4:	3940a000 	ldrb	w0, [x0, #40]
  425cb8:	6a00009f 	tst	w4, w0
  425cbc:	54000081 	b.ne	425ccc <fgetc+0x128bc>  // b.any
  425cc0:	d65f03c0 	ret
--
  425ef4:	b90000c1 	str	w1, [x6]
  425ef8:	b90000a0 	str	w0, [x5]
  425efc:	a94153f3 	ldp	x19, x20, [sp, #16]
  425f00:	a9425bf5 	ldp	x21, x22, [sp, #32]
  425f04:	a94363f7 	ldp	x23, x24, [sp, #48]
  425f08:	a9446bf9 	ldp	x25, x26, [sp, #64]
  425f0c:	a94573fb 	ldp	x27, x28, [sp, #80]
  425f10:	a8c97bfd 	ldp	x29, x30, [sp], #144
  425f14:	d65f03c0 	ret
--
  426010:	5280002f 	mov	w15, #0x1                   	// #1
  426014:	12800002 	mov	w2, #0xffffffff            	// #-1
  426018:	b9007fe1 	str	w1, [sp, #124]
  42601c:	b9008bef 	str	w15, [sp, #136]
  426020:	17ffff74 	b	425df0 <fgetc+0x129e0>
  426024:	f9079dab 	str	x11, [x13, #3896]
  426028:	35fff0de 	cbnz	w30, 425e40 <fgetc+0x12a30>
  42602c:	17ffff87 	b	425e48 <fgetc+0x12a38>
  426030:	d65f03c0 	ret
--
  42695c:	f902480a 	str	x10, [x0, #1168]
  426960:	f9024c06 	str	x6, [x0, #1176]
  426964:	b5000689 	cbnz	x9, 426a34 <fgetc+0x13624>
  426968:	a94153f3 	ldp	x19, x20, [sp, #16]
  42696c:	a9425bf5 	ldp	x21, x22, [sp, #32]
  426970:	a94363f7 	ldp	x23, x24, [sp, #48]
  426974:	a9446bf9 	ldp	x25, x26, [sp, #64]
  426978:	a8ca7bfd 	ldp	x29, x30, [sp], #160
  42697c:	d65f03c0 	ret
--
  426a30:	17fffeb6 	b	426508 <fgetc+0x130f8>
  426a34:	913fc2a0 	add	x0, x21, #0xff0
  426a38:	94007e8c 	bl	446468 <fgetc+0x33058>
  426a3c:	a94153f3 	ldp	x19, x20, [sp, #16]
  426a40:	a9425bf5 	ldp	x21, x22, [sp, #32]
  426a44:	a94363f7 	ldp	x23, x24, [sp, #48]
  426a48:	a9446bf9 	ldp	x25, x26, [sp, #64]
  426a4c:	a8ca7bfd 	ldp	x29, x30, [sp], #160
  426a50:	d65f03c0 	ret
--
  426b90:	52801062 	mov	w2, #0x83                  	// #131
  426b94:	97ff6c93 	bl	401de0 <main212+0xfec>
  426b98:	f9402bfb 	ldr	x27, [sp, #80]
  426b9c:	17ffffc8 	b	426abc <fgetc+0x136ac>
  426ba0:	d0000340 	adrp	x0, 490000 <fgetc+0x7cbf0>
  426ba4:	f9469000 	ldr	x0, [x0, #3360]
  426ba8:	b9400000 	ldr	w0, [x0]
  426bac:	34000040 	cbz	w0, 426bb4 <fgetc+0x137a4>
  426bb0:	d65f03c0 	ret
--
  426bc8:	9400699e 	bl	441240 <fgetc+0x2de30>
  426bcc:	52800021 	mov	w1, #0x1                   	// #1
  426bd0:	6b00027f 	cmp	w19, w0
  426bd4:	540000c0 	b.eq	426bec <fgetc+0x137dc>  // b.none
  426bd8:	d0000340 	adrp	x0, 490000 <fgetc+0x7cbf0>
  426bdc:	f9400bf3 	ldr	x19, [sp, #16]
  426be0:	b9074801 	str	w1, [x0, #1864]
  426be4:	a8c27bfd 	ldp	x29, x30, [sp], #32
  426be8:	d65f03c0 	ret
--
  426c34:	f9400040 	ldr	x0, [x2]
  426c38:	b40000e0 	cbz	x0, 426c54 <fgetc+0x13844>
  426c3c:	a9bf7bfd 	stp	x29, x30, [sp, #-16]!
  426c40:	d50320ff 	xpaclri
  426c44:	aa1e03e0 	mov	x0, x30
  426c48:	910003fd 	mov	x29, sp
  426c4c:	a8c17bfd 	ldp	x29, x30, [sp], #16
  426c50:	1400896a 	b	4491f8 <fgetc+0x35de8>
  426c54:	d65f03c0 	ret
--
  426cd4:	91000463 	add	x3, x3, #0x1
  426cd8:	7100b89f 	cmp	w4, #0x2e
  426cdc:	540000e1 	b.ne	426cf8 <fgetc+0x138e8>  // b.any
  426ce0:	71000cdf 	cmp	w6, #0x3
  426ce4:	54fffd01 	b.ne	426c84 <fgetc+0x13874>  // b.any
  426ce8:	a9407bfd 	ldp	x29, x30, [sp]
  426cec:	a94153f3 	ldp	x19, x20, [sp, #16]
  426cf0:	910803ff 	add	sp, sp, #0x200
  426cf4:	d65f03c0 	ret
--
  426cfc:	54ffff60 	b.eq	426ce8 <fgetc+0x138d8>  // b.none
  426d00:	52800061 	mov	w1, #0x3                   	// #3
  426d04:	4b060021 	sub	w1, w1, w6
  426d08:	a9407bfd 	ldp	x29, x30, [sp]
  426d0c:	531d7021 	lsl	w1, w1, #3
  426d10:	a94153f3 	ldp	x19, x20, [sp, #16]
  426d14:	1ac12000 	lsl	w0, w0, w1
  426d18:	910803ff 	add	sp, sp, #0x200
  426d1c:	d65f03c0 	ret
--
  426e34:	d503201f 	nop
  426e38:	d0000342 	adrp	x2, 490000 <fgetc+0x7cbf0>
  426e3c:	f946e042 	ldr	x2, [x2, #3520]
  426e40:	d53bd043 	mrs	x3, tpidr_el0
  426e44:	aa0003e1 	mov	x1, x0
  426e48:	92800000 	mov	x0, #0xffffffffffffffff    	// #-1
  426e4c:	4b0103e1 	neg	w1, w1
  426e50:	b8226861 	str	w1, [x3, x2]
  426e54:	d65f03c0 	ret
--
  427044:	910003bf 	mov	sp, x29
  427048:	2a1603e0 	mov	w0, w22
  42704c:	a94153f3 	ldp	x19, x20, [sp, #16]
  427050:	a9425bf5 	ldp	x21, x22, [sp, #32]
  427054:	a94363f7 	ldp	x23, x24, [sp, #48]
  427058:	a9446bf9 	ldp	x25, x26, [sp, #64]
  42705c:	a94573fb 	ldp	x27, x28, [sp, #80]
  427060:	a8ca7bfd 	ldp	x29, x30, [sp], #160
  427064:	d65f03c0 	ret
--
  427300:	f9400b61 	ldr	x1, [x27, #16]
  427304:	f90002e1 	str	x1, [x23]
  427308:	a94153f3 	ldp	x19, x20, [sp, #16]
  42730c:	a9425bf5 	ldp	x21, x22, [sp, #32]
  427310:	a94363f7 	ldp	x23, x24, [sp, #48]
  427314:	a9446bf9 	ldp	x25, x26, [sp, #64]
  427318:	a94573fb 	ldp	x27, x28, [sp, #80]
  42731c:	a8c67bfd 	ldp	x29, x30, [sp], #96
  427320:	d65f03c0 	ret
--
  42737c:	54ffffa2 	b.cs	427370 <fgetc+0x13f60>  // b.hs, b.nlast
  427380:	b5fffb97 	cbnz	x23, 4272f0 <fgetc+0x13ee0>
  427384:	a94153f3 	ldp	x19, x20, [sp, #16]
  427388:	a9425bf5 	ldp	x21, x22, [sp, #32]
  42738c:	a94363f7 	ldp	x23, x24, [sp, #48]
  427390:	a9446bf9 	ldp	x25, x26, [sp, #64]
  427394:	a94573fb 	ldp	x27, x28, [sp, #80]
  427398:	a8c67bfd 	ldp	x29, x30, [sp], #96
  42739c:	d65f03c0 	ret
  4273a0:	52800100 	mov	w0, #0x8                   	// #8
  4273a4:	d65f03c0 	ret
--
  427478:	350000c0 	cbnz	w0, 427490 <fgetc+0x14080>
  42747c:	f9400660 	ldr	x0, [x19, #8]
  427480:	f9400681 	ldr	x1, [x20, #8]
  427484:	a94153f3 	ldp	x19, x20, [sp, #16]
  427488:	a8c27bfd 	ldp	x29, x30, [sp], #32
  42748c:	17ffddad 	b	41eb40 <fgetc+0xb730>
  427490:	a94153f3 	ldp	x19, x20, [sp, #16]
  427494:	a8c27bfd 	ldp	x29, x30, [sp], #32
  427498:	d65f03c0 	ret
  42749c:	d503201f 	nop
  4274a0:	b0000360 	adrp	x0, 494000 <.got+0x34d0>
  4274a4:	f9428400 	ldr	x0, [x0, #1288]
  4274a8:	d65f03c0 	ret
  4274ac:	d503201f 	nop
  4274b0:	b0000360 	adrp	x0, 494000 <.got+0x34d0>
  4274b4:	f9428c00 	ldr	x0, [x0, #1304]
  4274b8:	d65f03c0 	ret
--
  427504:	97fffdc9 	bl	426c28 <fgetc+0x13818>
  427508:	aa1303e0 	mov	x0, x19
  42750c:	d63f0280 	blr	x20
  427510:	f9400260 	ldr	x0, [x19]
  427514:	9400269d 	bl	430f88 <fgetc+0x1db78>
  427518:	f900027f 	str	xzr, [x19]
  42751c:	a94153f3 	ldp	x19, x20, [sp, #16]
  427520:	a8c27bfd 	ldp	x29, x30, [sp], #32
  427524:	d65f03c0 	ret
--
  427bf0:	910003bf 	mov	sp, x29
  427bf4:	2a0303e0 	mov	w0, w3
  427bf8:	a94153f3 	ldp	x19, x20, [sp, #16]
  427bfc:	a9425bf5 	ldp	x21, x22, [sp, #32]
  427c00:	a94363f7 	ldp	x23, x24, [sp, #48]
  427c04:	a9446bf9 	ldp	x25, x26, [sp, #64]
  427c08:	a94573fb 	ldp	x27, x28, [sp, #80]
  427c0c:	a8cd7bfd 	ldp	x29, x30, [sp], #208
  427c10:	d65f03c0 	ret
--
  427e6c:	f94037e1 	ldr	x1, [sp, #104]
  427e70:	f9400262 	ldr	x2, [x19]
  427e74:	eb020021 	subs	x1, x1, x2
  427e78:	d2800002 	mov	x2, #0x0                   	// #0
  427e7c:	540004a1 	b.ne	427f10 <fgetc+0x14b00>  // b.any
  427e80:	a94153f3 	ldp	x19, x20, [sp, #16]
  427e84:	a9425bf5 	ldp	x21, x22, [sp, #32]
  427e88:	a8c77bfd 	ldp	x29, x30, [sp], #112
  427e8c:	d65f03c0 	ret
--
  428060:	d2800002 	mov	x2, #0x0                   	// #0
  428064:	540009e1 	b.ne	4281a0 <fgetc+0x14d90>  // b.any
  428068:	2a1303e0 	mov	w0, w19
  42806c:	a94153f3 	ldp	x19, x20, [sp, #16]
  428070:	a9425bf5 	ldp	x21, x22, [sp, #32]
  428074:	a94363f7 	ldp	x23, x24, [sp, #48]
  428078:	a9446bf9 	ldp	x25, x26, [sp, #64]
  42807c:	a8c87bfd 	ldp	x29, x30, [sp], #128
  428080:	d65f03c0 	ret
--
  428218:	52800000 	mov	w0, #0x0                   	// #0
  42821c:	9400a5c5 	bl	451930 <fgetc+0x3e520>
  428220:	7100041f 	cmp	w0, #0x1
  428224:	5400012c 	b.gt	428248 <fgetc+0x14e38>
  428228:	52800000 	mov	w0, #0x0                   	// #0
  42822c:	a94153f3 	ldp	x19, x20, [sp, #16]
  428230:	a9425bf5 	ldp	x21, x22, [sp, #32]
  428234:	a8c37bfd 	ldp	x29, x30, [sp], #48
  428238:	d65f03c0 	ret
--
  428250:	d2800022 	mov	x2, #0x1                   	// #1
  428254:	d2800003 	mov	x3, #0x0                   	// #0
  428258:	d2800c48 	mov	x8, #0x62                  	// #98
  42825c:	d4000001 	svc	#0x0
  428260:	52800000 	mov	w0, #0x0                   	// #0
  428264:	a94153f3 	ldp	x19, x20, [sp, #16]
  428268:	a9425bf5 	ldp	x21, x22, [sp, #32]
  42826c:	a8c37bfd 	ldp	x29, x30, [sp], #48
  428270:	d65f03c0 	ret
--
  428504:	54000761 	b.ne	4285f0 <fgetc+0x151e0>  // b.any
  428508:	910003bf 	mov	sp, x29
  42850c:	a94153f3 	ldp	x19, x20, [sp, #16]
  428510:	a9425bf5 	ldp	x21, x22, [sp, #32]
  428514:	a94363f7 	ldp	x23, x24, [sp, #48]
  428518:	a9446bf9 	ldp	x25, x26, [sp, #64]
  42851c:	a94573fb 	ldp	x27, x28, [sp, #80]
  428520:	a8c87bfd 	ldp	x29, x30, [sp], #128
  428524:	d65f03c0 	ret
--
  4286a8:	aa1703e0 	mov	x0, x23
  4286ac:	f9401673 	ldr	x19, [x19, #40]
  4286b0:	b5ffff53 	cbnz	x19, 428698 <fgetc+0x15288>
  4286b4:	a94363f7 	ldp	x23, x24, [sp, #48]
  4286b8:	f9000295 	str	x21, [x20]
  4286bc:	a94153f3 	ldp	x19, x20, [sp, #16]
  4286c0:	a9425bf5 	ldp	x21, x22, [sp, #32]
  4286c4:	a8c47bfd 	ldp	x29, x30, [sp], #64
  4286c8:	d65f03c0 	ret
--
  42875c:	7100001f 	cmp	w0, #0x0
  428760:	34000160 	cbz	w0, 42878c <fgetc+0x1537c>
  428764:	540000eb 	b.lt	428780 <fgetc+0x15370>  // b.tstop
  428768:	f9401a73 	ldr	x19, [x19, #48]
  42876c:	b5ffff33 	cbnz	x19, 428750 <fgetc+0x15340>
  428770:	52800000 	mov	w0, #0x0                   	// #0
  428774:	a94153f3 	ldp	x19, x20, [sp, #16]
  428778:	a8c27bfd 	ldp	x29, x30, [sp], #32
  42877c:	d65f03c0 	ret
  428780:	f9401273 	ldr	x19, [x19, #32]
  428784:	b5fffe73 	cbnz	x19, 428750 <fgetc+0x15340>
  428788:	17fffffa 	b	428770 <fgetc+0x15360>
  42878c:	52800020 	mov	w0, #0x1                   	// #1
  428790:	a94153f3 	ldp	x19, x20, [sp, #16]
  428794:	a8c27bfd 	ldp	x29, x30, [sp], #32
  428798:	d65f03c0 	ret
--
  428934:	54000d01 	b.ne	428ad4 <fgetc+0x156c4>  // b.any
  428938:	910003bf 	mov	sp, x29
  42893c:	a94153f3 	ldp	x19, x20, [sp, #16]
  428940:	a9425bf5 	ldp	x21, x22, [sp, #32]
  428944:	a94363f7 	ldp	x23, x24, [sp, #48]
  428948:	a9446bf9 	ldp	x25, x26, [sp, #64]
  42894c:	a94573fb 	ldp	x27, x28, [sp, #80]
  428950:	a8c97bfd 	ldp	x29, x30, [sp], #144
  428954:	d65f03c0 	ret
--
  428b4c:	aa1303e0 	mov	x0, x19
  428b50:	a94153f3 	ldp	x19, x20, [sp, #16]
  428b54:	a9425bf5 	ldp	x21, x22, [sp, #32]
  428b58:	a8c37bfd 	ldp	x29, x30, [sp], #48
  428b5c:	17ffd26d 	b	41d510 <fgetc+0xa100>
  428b60:	a94153f3 	ldp	x19, x20, [sp, #16]
  428b64:	a9425bf5 	ldp	x21, x22, [sp, #32]
  428b68:	a8c37bfd 	ldp	x29, x30, [sp], #48
  428b6c:	d65f03c0 	ret
--
  428be0:	54002081 	b.ne	428ff0 <fgetc+0x15be0>  // b.any
  428be4:	910003bf 	mov	sp, x29
  428be8:	a94153f3 	ldp	x19, x20, [sp, #16]
  428bec:	a9425bf5 	ldp	x21, x22, [sp, #32]
  428bf0:	a94363f7 	ldp	x23, x24, [sp, #48]
  428bf4:	a9446bf9 	ldp	x25, x26, [sp, #64]
  428bf8:	a94573fb 	ldp	x27, x28, [sp, #80]
  428bfc:	a8cb7bfd 	ldp	x29, x30, [sp], #176
  428c00:	d65f03c0 	ret
--
  429020:	910003fd 	mov	x29, sp
  429024:	f9000bf3 	str	x19, [sp, #16]
  429028:	d0000353 	adrp	x19, 493000 <.got+0x24d0>
  42902c:	912aa273 	add	x19, x19, #0xaa8
  429030:	b9400660 	ldr	w0, [x19, #4]
  429034:	34000080 	cbz	w0, 429044 <fgetc+0x15c34>
  429038:	f9400bf3 	ldr	x19, [sp, #16]
  42903c:	a8c27bfd 	ldp	x29, x30, [sp], #32
  429040:	d65f03c0 	ret
  429044:	97fffecb 	bl	428b70 <fgetc+0x15760>
  429048:	b9400660 	ldr	w0, [x19, #4]
  42904c:	321f0000 	orr	w0, w0, #0x2
  429050:	b9000660 	str	w0, [x19, #4]
  429054:	f9400bf3 	ldr	x19, [sp, #16]
  429058:	a8c27bfd 	ldp	x29, x30, [sp], #32
  42905c:	d65f03c0 	ret
--
  4290fc:	f9400a64 	ldr	x4, [x19, #16]
  429100:	f9001a84 	str	x4, [x20, #48]
  429104:	a903fe9f 	stp	xzr, xzr, [x20, #56]
  429108:	29090a83 	stp	w3, w2, [x20, #72]
  42910c:	290a0281 	stp	w1, w0, [x20, #80]
  429110:	b9005a9f 	str	wzr, [x20, #88]
  429114:	a94153f3 	ldp	x19, x20, [sp, #16]
  429118:	a8c37bfd 	ldp	x29, x30, [sp], #48
  42911c:	d65f03c0 	ret
  429120:	7219003f 	tst	w1, #0x80
  429124:	12001c20 	and	w0, w1, #0xff
  429128:	5a9f0000 	csinv	w0, w0, wzr, eq  // eq = none
  42912c:	d65f03c0 	ret
--
  4293a8:	d2800001 	mov	x1, #0x0                   	// #0
  4293ac:	54001101 	b.ne	4295cc <fgetc+0x161bc>  // b.any
  4293b0:	2a1903e0 	mov	w0, w25
  4293b4:	a94153f3 	ldp	x19, x20, [sp, #16]
  4293b8:	a9425bf5 	ldp	x21, x22, [sp, #32]
  4293bc:	a94363f7 	ldp	x23, x24, [sp, #48]
  4293c0:	a9446bf9 	ldp	x25, x26, [sp, #64]
  4293c4:	a8cb7bfd 	ldp	x29, x30, [sp], #176
  4293c8:	d65f03c0 	ret
--
  429884:	54001e01 	b.ne	429c44 <fgetc+0x16834>  // b.any
  429888:	2a1b03e0 	mov	w0, w27
  42988c:	a94153f3 	ldp	x19, x20, [sp, #16]
  429890:	a9425bf5 	ldp	x21, x22, [sp, #32]
  429894:	a94363f7 	ldp	x23, x24, [sp, #48]
  429898:	a9446bf9 	ldp	x25, x26, [sp, #64]
  42989c:	a94573fb 	ldp	x27, x28, [sp, #80]
  4298a0:	a8cc7bfd 	ldp	x29, x30, [sp], #192
  4298a4:	d65f03c0 	ret
--
  429e48:	d2800002 	mov	x2, #0x0                   	// #0
  429e4c:	540014c1 	b.ne	42a0e4 <fgetc+0x16cd4>  // b.any
  429e50:	2a1603e0 	mov	w0, w22
  429e54:	a94153f3 	ldp	x19, x20, [sp, #16]
  429e58:	a9425bf5 	ldp	x21, x22, [sp, #32]
  429e5c:	a94363f7 	ldp	x23, x24, [sp, #48]
  429e60:	a94573fb 	ldp	x27, x28, [sp, #80]
  429e64:	a8cb7bfd 	ldp	x29, x30, [sp], #176
  429e68:	d65f03c0 	ret
--
  42a304:	540023a1 	b.ne	42a778 <fgetc+0x17368>  // b.any
  42a308:	2a1b03e0 	mov	w0, w27
  42a30c:	a94153f3 	ldp	x19, x20, [sp, #16]
  42a310:	a9425bf5 	ldp	x21, x22, [sp, #32]
  42a314:	a94363f7 	ldp	x23, x24, [sp, #48]
  42a318:	a9446bf9 	ldp	x25, x26, [sp, #64]
  42a31c:	a94573fb 	ldp	x27, x28, [sp, #80]
  42a320:	a8cc7bfd 	ldp	x29, x30, [sp], #192
  42a324:	d65f03c0 	ret
--
  42a9d4:	d2800002 	mov	x2, #0x0                   	// #0
  42a9d8:	54000e61 	b.ne	42aba4 <fgetc+0x17794>  // b.any
  42a9dc:	2a1703e0 	mov	w0, w23
  42a9e0:	a9425bf5 	ldp	x21, x22, [sp, #32]
  42a9e4:	a94363f7 	ldp	x23, x24, [sp, #48]
  42a9e8:	a9446bf9 	ldp	x25, x26, [sp, #64]
  42a9ec:	a94573fb 	ldp	x27, x28, [sp, #80]
  42a9f0:	a8cc7bfd 	ldp	x29, x30, [sp], #192
  42a9f4:	d65f03c0 	ret
--
  42af18:	54003041 	b.ne	42b520 <fgetc+0x18110>  // b.any
  42af1c:	2a1903e0 	mov	w0, w25
  42af20:	a94153f3 	ldp	x19, x20, [sp, #16]
  42af24:	a9425bf5 	ldp	x21, x22, [sp, #32]
  42af28:	a94363f7 	ldp	x23, x24, [sp, #48]
  42af2c:	a9446bf9 	ldp	x25, x26, [sp, #64]
  42af30:	a94573fb 	ldp	x27, x28, [sp, #80]
  42af34:	a8ce7bfd 	ldp	x29, x30, [sp], #224
  42af38:	d65f03c0 	ret
--
  42b764:	54004581 	b.ne	42c014 <fgetc+0x18c04>  // b.any
  42b768:	2a1803e0 	mov	w0, w24
  42b76c:	a94153f3 	ldp	x19, x20, [sp, #16]
  42b770:	a9425bf5 	ldp	x21, x22, [sp, #32]
  42b774:	a94363f7 	ldp	x23, x24, [sp, #48]
  42b778:	a9446bf9 	ldp	x25, x26, [sp, #64]
  42b77c:	a94573fb 	ldp	x27, x28, [sp, #80]
  42b780:	a8ce7bfd 	ldp	x29, x30, [sp], #224
  42b784:	d65f03c0 	ret
--
  42c2ac:	54004101 	b.ne	42cacc <fgetc+0x196bc>  // b.any
  42c2b0:	2a1b03e0 	mov	w0, w27
  42c2b4:	a94153f3 	ldp	x19, x20, [sp, #16]
  42c2b8:	a9425bf5 	ldp	x21, x22, [sp, #32]
  42c2bc:	a94363f7 	ldp	x23, x24, [sp, #48]
  42c2c0:	a9446bf9 	ldp	x25, x26, [sp, #64]
  42c2c4:	a94573fb 	ldp	x27, x28, [sp, #80]
  42c2c8:	a8cb7bfd 	ldp	x29, x30, [sp], #176
  42c2cc:	d65f03c0 	ret
--
  42cea0:	54001981 	b.ne	42d1d0 <fgetc+0x19dc0>  // b.any
  42cea4:	2a1603e0 	mov	w0, w22
  42cea8:	a94153f3 	ldp	x19, x20, [sp, #16]
  42ceac:	a9425bf5 	ldp	x21, x22, [sp, #32]
  42ceb0:	a94363f7 	ldp	x23, x24, [sp, #48]
  42ceb4:	a9446bf9 	ldp	x25, x26, [sp, #64]
  42ceb8:	a94573fb 	ldp	x27, x28, [sp, #80]
  42cebc:	a8cc7bfd 	ldp	x29, x30, [sp], #192
  42cec0:	d65f03c0 	ret
--
  42d5a8:	d2800002 	mov	x2, #0x0                   	// #0
  42d5ac:	54003501 	b.ne	42dc4c <fgetc+0x1a83c>  // b.any
  42d5b0:	2a1903e0 	mov	w0, w25
  42d5b4:	a94153f3 	ldp	x19, x20, [sp, #16]
  42d5b8:	a94363f7 	ldp	x23, x24, [sp, #48]
  42d5bc:	a9446bf9 	ldp	x25, x26, [sp, #64]
  42d5c0:	a94573fb 	ldp	x27, x28, [sp, #80]
  42d5c4:	a8cf7bfd 	ldp	x29, x30, [sp], #240
  42d5c8:	d65f03c0 	ret
--
  42dfe8:	54001ae1 	b.ne	42e344 <fgetc+0x1af34>  // b.any
  42dfec:	2a1503e0 	mov	w0, w21
  42dff0:	a94153f3 	ldp	x19, x20, [sp, #16]
  42dff4:	a9425bf5 	ldp	x21, x22, [sp, #32]
  42dff8:	a94363f7 	ldp	x23, x24, [sp, #48]
  42dffc:	a9446bf9 	ldp	x25, x26, [sp, #64]
  42e000:	a94573fb 	ldp	x27, x28, [sp, #80]
  42e004:	a8cc7bfd 	ldp	x29, x30, [sp], #192
  42e008:	d65f03c0 	ret
--
  42e720:	d2800002 	mov	x2, #0x0                   	// #0
  42e724:	540034e1 	b.ne	42edc0 <fgetc+0x1b9b0>  // b.any
  42e728:	2a1903e0 	mov	w0, w25
  42e72c:	a94153f3 	ldp	x19, x20, [sp, #16]
  42e730:	a94363f7 	ldp	x23, x24, [sp, #48]
  42e734:	a9446bf9 	ldp	x25, x26, [sp, #64]
  42e738:	a94573fb 	ldp	x27, x28, [sp, #80]
  42e73c:	a8cf7bfd 	ldp	x29, x30, [sp], #240
  42e740:	d65f03c0 	ret
--
  42f00c:	eb030042 	subs	x2, x2, x3
  42f010:	d2800003 	mov	x3, #0x0                   	// #0
  42f014:	540016e1 	b.ne	42f2f0 <fgetc+0x1bee0>  // b.any
  42f018:	a9425bf5 	ldp	x21, x22, [sp, #32]
  42f01c:	a94363f7 	ldp	x23, x24, [sp, #48]
  42f020:	a9446bf9 	ldp	x25, x26, [sp, #64]
  42f024:	a94573fb 	ldp	x27, x28, [sp, #80]
  42f028:	a8d17bfd 	ldp	x29, x30, [sp], #272
  42f02c:	d65f03c0 	ret
--
  4303a0:	35fffe22 	cbnz	w2, 430364 <fgetc+0x1cf54>
  4303a4:	12800000 	mov	w0, #0xffffffff            	// #-1
  4303a8:	a94153f3 	ldp	x19, x20, [sp, #16]
  4303ac:	a9425bf5 	ldp	x21, x22, [sp, #32]
  4303b0:	a94363f7 	ldp	x23, x24, [sp, #48]
  4303b4:	a9446bf9 	ldp	x25, x26, [sp, #64]
  4303b8:	a94573fb 	ldp	x27, x28, [sp, #80]
  4303bc:	a8c67bfd 	ldp	x29, x30, [sp], #96
  4303c0:	d65f03c0 	ret
  4303c4:	79400781 	ldrh	w1, [x28, #2]
  4303c8:	f90002e1 	str	x1, [x23]
  4303cc:	a94153f3 	ldp	x19, x20, [sp, #16]
  4303d0:	a9425bf5 	ldp	x21, x22, [sp, #32]
  4303d4:	a94363f7 	ldp	x23, x24, [sp, #48]
  4303d8:	a9446bf9 	ldp	x25, x26, [sp, #64]
  4303dc:	a94573fb 	ldp	x27, x28, [sp, #80]
  4303e0:	a8c67bfd 	ldp	x29, x30, [sp], #96
  4303e4:	d65f03c0 	ret
--
  430510:	d2800002 	mov	x2, #0x0                   	// #0
  430514:	54000141 	b.ne	43053c <fgetc+0x1d12c>  // b.any
  430518:	910003bf 	mov	sp, x29
  43051c:	a94153f3 	ldp	x19, x20, [sp, #16]
  430520:	a9425bf5 	ldp	x21, x22, [sp, #32]
  430524:	a94363f7 	ldp	x23, x24, [sp, #48]
  430528:	f94023f9 	ldr	x25, [sp, #64]
  43052c:	a8c67bfd 	ldp	x29, x30, [sp], #96
  430530:	d65f03c0 	ret
  430534:	f90203ff 	str	xzr, [sp, #1024]
  430538:	17ffffd0 	b	430478 <fgetc+0x1d068>
  43053c:	97ffd431 	bl	425600 <fgetc+0x121f0>
  430540:	f0000300 	adrp	x0, 493000 <.got+0x24d0>
  430544:	f9455800 	ldr	x0, [x0, #2736]
  430548:	d65f03c0 	ret
--
  430670:	f945c694 	ldr	x20, [x20, #2952]
  430674:	f94067e1 	ldr	x1, [sp, #200]
  430678:	f9400282 	ldr	x2, [x20]
  43067c:	eb020021 	subs	x1, x1, x2
  430680:	d2800002 	mov	x2, #0x0                   	// #0
  430684:	540006c1 	b.ne	43075c <fgetc+0x1d34c>  // b.any
  430688:	a94153f3 	ldp	x19, x20, [sp, #16]
  43068c:	a8cd7bfd 	ldp	x29, x30, [sp], #208
  430690:	d65f03c0 	ret
--
  4307cc:	f945c673 	ldr	x19, [x19, #2952]
  4307d0:	f94027e1 	ldr	x1, [sp, #72]
  4307d4:	f9400262 	ldr	x2, [x19]
  4307d8:	eb020021 	subs	x1, x1, x2
  4307dc:	d2800002 	mov	x2, #0x0                   	// #0
  4307e0:	540001e1 	b.ne	43081c <fgetc+0x1d40c>  // b.any
  4307e4:	a94153f3 	ldp	x19, x20, [sp, #16]
  4307e8:	a8c57bfd 	ldp	x29, x30, [sp], #80
  4307ec:	d65f03c0 	ret
--
  4308d0:	eb020000 	subs	x0, x0, x2
  4308d4:	d2800002 	mov	x2, #0x0                   	// #0
  4308d8:	54001f21 	b.ne	430cbc <fgetc+0x1d8ac>  // b.any
  4308dc:	2a1403e0 	mov	w0, w20
  4308e0:	a94153f3 	ldp	x19, x20, [sp, #16]
  4308e4:	a9446bf9 	ldp	x25, x26, [sp, #64]
  4308e8:	a94573fb 	ldp	x27, x28, [sp, #80]
  4308ec:	a8cb7bfd 	ldp	x29, x30, [sp], #176
  4308f0:	d65f03c0 	ret
--
  430cc8:	52800d00 	mov	w0, #0x68                  	// #104
  430ccc:	2a0103f7 	mov	w23, w1
  430cd0:	9b205821 	smaddl	x1, w1, w0, x22
  430cd4:	17ffff34 	b	4309a4 <fgetc+0x1d594>
  430cd8:	f0000301 	adrp	x1, 493000 <.got+0x24d0>
  430cdc:	f9455821 	ldr	x1, [x1, #2736]
  430ce0:	b4000041 	cbz	x1, 430ce8 <fgetc+0x1d8d8>
  430ce4:	17ffb20b 	b	41d510 <fgetc+0xa100>
  430ce8:	d65f03c0 	ret
--
  430d2c:	7100083f 	cmp	w1, #0x2
  430d30:	540000a8 	b.hi	430d44 <fgetc+0x1d934>  // b.pmore
  430d34:	51000400 	sub	w0, w0, #0x1
  430d38:	b9000a60 	str	w0, [x19, #8]
  430d3c:	31000c1f 	cmn	w0, #0x3
  430d40:	54000180 	b.eq	430d70 <fgetc+0x1d960>  // b.none
  430d44:	f9400bf3 	ldr	x19, [sp, #16]
  430d48:	a8c27bfd 	ldp	x29, x30, [sp], #32
  430d4c:	d65f03c0 	ret
  430d50:	d65f03c0 	ret
  430d54:	7100001f 	cmp	w0, #0x0
  430d58:	5400016d 	b.le	430d84 <fgetc+0x1d974>
  430d5c:	51000400 	sub	w0, w0, #0x1
  430d60:	b9000840 	str	w0, [x2, #8]
  430d64:	f9400bf3 	ldr	x19, [sp, #16]
  430d68:	a8c27bfd 	ldp	x29, x30, [sp], #32
  430d6c:	d65f03c0 	ret
--
  430e6c:	ca020063 	eor	x3, x3, x2
  430e70:	f9001660 	str	x0, [x19, #40]
  430e74:	aa1303e0 	mov	x0, x19
  430e78:	ca020021 	eor	x1, x1, x2
  430e7c:	a9018663 	stp	x3, x1, [x19, #24]
  430e80:	a94153f3 	ldp	x19, x20, [sp, #16]
  430e84:	a9425bf5 	ldp	x21, x22, [sp, #32]
  430e88:	a8c57bfd 	ldp	x29, x30, [sp], #80
  430e8c:	d65f03c0 	ret
--
  430e94:	7100001f 	cmp	w0, #0x0
  430e98:	1a9fa000 	csel	w0, w0, wzr, ge  // ge = tcont
  430e9c:	11000400 	add	w0, w0, #0x1
  430ea0:	b9000a60 	str	w0, [x19, #8]
  430ea4:	aa1303e0 	mov	x0, x19
  430ea8:	a94153f3 	ldp	x19, x20, [sp, #16]
  430eac:	a9425bf5 	ldp	x21, x22, [sp, #32]
  430eb0:	a8c57bfd 	ldp	x29, x30, [sp], #80
  430eb4:	d65f03c0 	ret
  430eb8:	a94363f7 	ldp	x23, x24, [sp, #48]
  430ebc:	d2800013 	mov	x19, #0x0                   	// #0
  430ec0:	aa1303e0 	mov	x0, x19
  430ec4:	a94153f3 	ldp	x19, x20, [sp, #16]
  430ec8:	a9425bf5 	ldp	x21, x22, [sp, #32]
  430ecc:	a8c57bfd 	ldp	x29, x30, [sp], #80
  430ed0:	d65f03c0 	ret
--
  431008:	aa0203e0 	mov	x0, x2
  43100c:	d1000402 	sub	x2, x0, #0x1
  431010:	b5fffec0 	cbnz	x0, 430fe8 <fgetc+0x1dbd8>
  431014:	390002ff 	strb	wzr, [x23]
  431018:	a94153f3 	ldp	x19, x20, [sp, #16]
  43101c:	a9425bf5 	ldp	x21, x22, [sp, #32]
  431020:	a94363f7 	ldp	x23, x24, [sp, #48]
  431024:	a8c47bfd 	ldp	x29, x30, [sp], #64
  431028:	d65f03c0 	ret
--
  431394:	eb010000 	subs	x0, x0, x1
  431398:	d2800001 	mov	x1, #0x0                   	// #0
  43139c:	54000221 	b.ne	4313e0 <fgetc+0x1dfd0>  // b.any
  4313a0:	aa1503e0 	mov	x0, x21
  4313a4:	a94153f3 	ldp	x19, x20, [sp, #16]
  4313a8:	a9425bf5 	ldp	x21, x22, [sp, #32]
  4313ac:	f9401bf7 	ldr	x23, [sp, #48]
  4313b0:	a8c77bfd 	ldp	x29, x30, [sp], #112
  4313b4:	d65f03c0 	ret
--
  43150c:	350006c0 	cbnz	w0, 4315e4 <fgetc+0x1e1d4>
  431510:	aa1503e0 	mov	x0, x21
  431514:	a94153f3 	ldp	x19, x20, [sp, #16]
  431518:	a9425bf5 	ldp	x21, x22, [sp, #32]
  43151c:	a94363f7 	ldp	x23, x24, [sp, #48]
  431520:	a9446bf9 	ldp	x25, x26, [sp, #64]
  431524:	f9402bfb 	ldr	x27, [sp, #80]
  431528:	a8c67bfd 	ldp	x29, x30, [sp], #96
  43152c:	d65f03c0 	ret
--
  4315b0:	3900003f 	strb	wzr, [x1]
  4315b4:	aa1503e0 	mov	x0, x21
  4315b8:	a94153f3 	ldp	x19, x20, [sp, #16]
  4315bc:	a9425bf5 	ldp	x21, x22, [sp, #32]
  4315c0:	a94363f7 	ldp	x23, x24, [sp, #48]
  4315c4:	a9446bf9 	ldp	x25, x26, [sp, #64]
  4315c8:	f9402bfb 	ldr	x27, [sp, #80]
  4315cc:	a8c67bfd 	ldp	x29, x30, [sp], #96
  4315d0:	d65f03c0 	ret
--
  4316c8:	eb010000 	subs	x0, x0, x1
  4316cc:	d2800001 	mov	x1, #0x0                   	// #0
  4316d0:	54003161 	b.ne	431cfc <fgetc+0x1e8ec>  // b.any
  4316d4:	aa1a03e0 	mov	x0, x26
  4316d8:	a94153f3 	ldp	x19, x20, [sp, #16]
  4316dc:	a9425bf5 	ldp	x21, x22, [sp, #32]
  4316e0:	a9446bf9 	ldp	x25, x26, [sp, #64]
  4316e4:	a8d77bfd 	ldp	x29, x30, [sp], #368
  4316e8:	d65f03c0 	ret
--
  431e38:	910003bf 	mov	sp, x29
  431e3c:	aa1403e0 	mov	x0, x20
  431e40:	a94153f3 	ldp	x19, x20, [sp, #16]
  431e44:	a9425bf5 	ldp	x21, x22, [sp, #32]
  431e48:	a94363f7 	ldp	x23, x24, [sp, #48]
  431e4c:	a9446bf9 	ldp	x25, x26, [sp, #64]
  431e50:	f9402bfb 	ldr	x27, [sp, #80]
  431e54:	a8ca7bfd 	ldp	x29, x30, [sp], #160
  431e58:	d65f03c0 	ret
--
  432568:	f9400c42 	ldr	x2, [x2, #24]
  43256c:	f9400840 	ldr	x0, [x2, #16]
  432570:	eb01001f 	cmp	x0, x1
  432574:	54ffffa1 	b.ne	432568 <fgetc+0x1f158>  // b.any
  432578:	b900085f 	str	wzr, [x2, #8]
  43257c:	f900085f 	str	xzr, [x2, #16]
  432580:	aa0103e0 	mov	x0, x1
  432584:	14000161 	b	432b08 <fgetc+0x1f6f8>
  432588:	d65f03c0 	ret
--
  4326d4:	d53bd042 	mrs	x2, tpidr_el0
  4326d8:	a9425bf5 	ldp	x21, x22, [sp, #32]
  4326dc:	528002c3 	mov	w3, #0x16                  	// #22
  4326e0:	d2800000 	mov	x0, #0x0                   	// #0
  4326e4:	b8216843 	str	w3, [x2, x1]
  4326e8:	a94153f3 	ldp	x19, x20, [sp, #16]
  4326ec:	a94363f7 	ldp	x23, x24, [sp, #48]
  4326f0:	a8c47bfd 	ldp	x29, x30, [sp], #64
  4326f4:	d65f03c0 	ret
--
  432788:	d00002e1 	adrp	x1, 490000 <fgetc+0x7cbf0>
  43278c:	f946e021 	ldr	x1, [x1, #3520]
  432790:	528002c3 	mov	w3, #0x16                  	// #22
  432794:	d2800000 	mov	x0, #0x0                   	// #0
  432798:	a94153f3 	ldp	x19, x20, [sp, #16]
  43279c:	b8216843 	str	w3, [x2, x1]
  4327a0:	a94363f7 	ldp	x23, x24, [sp, #48]
  4327a4:	a8c47bfd 	ldp	x29, x30, [sp], #64
  4327a8:	d65f03c0 	ret
--
  4327fc:	54fff4a9 	b.ls	432690 <fgetc+0x1f280>  // b.plast
  432800:	17ffffb2 	b	4326c8 <fgetc+0x1f2b8>
  432804:	d00002e1 	adrp	x1, 490000 <fgetc+0x7cbf0>
  432808:	f946e021 	ldr	x1, [x1, #3520]
  43280c:	d53bd042 	mrs	x2, tpidr_el0
  432810:	528002c3 	mov	w3, #0x16                  	// #22
  432814:	d2800000 	mov	x0, #0x0                   	// #0
  432818:	b8216843 	str	w3, [x2, x1]
  43281c:	d65f03c0 	ret
--
  432940:	54000e21 	b.ne	432b04 <fgetc+0x1f6f4>  // b.any
  432944:	910003bf 	mov	sp, x29
  432948:	a94153f3 	ldp	x19, x20, [sp, #16]
  43294c:	a9425bf5 	ldp	x21, x22, [sp, #32]
  432950:	a94363f7 	ldp	x23, x24, [sp, #48]
  432954:	a9446bf9 	ldp	x25, x26, [sp, #64]
  432958:	a94573fb 	ldp	x27, x28, [sp, #80]
  43295c:	a8d07bfd 	ldp	x29, x30, [sp], #256
  432960:	d65f03c0 	ret
--
  432c14:	910003bf 	mov	sp, x29
  432c18:	aa1303e0 	mov	x0, x19
  432c1c:	a94153f3 	ldp	x19, x20, [sp, #16]
  432c20:	a9425bf5 	ldp	x21, x22, [sp, #32]
  432c24:	a94363f7 	ldp	x23, x24, [sp, #48]
  432c28:	a9446bf9 	ldp	x25, x26, [sp, #64]
  432c2c:	a94573fb 	ldp	x27, x28, [sp, #80]
  432c30:	a8d57bfd 	ldp	x29, x30, [sp], #336
  432c34:	d65f03c0 	ret
--
  433060:	a9440823 	ldp	x3, x2, [x1, #64]
  433064:	f9402c21 	ldr	x1, [x1, #88]
  433068:	91080021 	add	x1, x1, #0x200
  43306c:	91040063 	add	x3, x3, #0x100
  433070:	91080042 	add	x2, x2, #0x200
  433074:	a9068403 	stp	x3, x1, [x0, #104]
  433078:	f9003c02 	str	x2, [x0, #120]
  43307c:	54000040 	b.eq	433084 <fgetc+0x1fc74>  // b.none
  433080:	d65f03c0 	ret
--
  433088:	f94754c6 	ldr	x6, [x6, #3752]
  43308c:	b00002e5 	adrp	x5, 490000 <fgetc+0x7cbf0>
  433090:	f94798a5 	ldr	x5, [x5, #3888]
  433094:	b00002e0 	adrp	x0, 490000 <fgetc+0x7cbf0>
  433098:	f9466000 	ldr	x0, [x0, #3264]
  43309c:	f8266883 	str	x3, [x4, x6]
  4330a0:	f8256882 	str	x2, [x4, x5]
  4330a4:	f8206881 	str	x1, [x4, x0]
  4330a8:	d65f03c0 	ret
  4330ac:	d503201f 	nop
  4330b0:	b00002e1 	adrp	x1, 490000 <fgetc+0x7cbf0>
  4330b4:	f9477421 	ldr	x1, [x1, #3816]
  4330b8:	d53bd042 	mrs	x2, tpidr_el0
  4330bc:	f8616841 	ldr	x1, [x2, x1]
  4330c0:	8b20cc20 	add	x0, x1, w0, sxtw #3
  4330c4:	f9404000 	ldr	x0, [x0, #128]
  4330c8:	d65f03c0 	ret
  4330cc:	d503201f 	nop
  4330d0:	d2a00000 	movz	x0, #0x0, lsl #16
  4330d4:	f2800a00 	movk	x0, #0x50
  4330d8:	d53bd041 	mrs	x1, tpidr_el0
  4330dc:	8b000020 	add	x0, x1, x0
  4330e0:	d65f03c0 	ret
  4330e4:	d503201f 	nop
  4330e8:	d2a00000 	movz	x0, #0x0, lsl #16
  4330ec:	f2800a00 	movk	x0, #0x50
  4330f0:	d53bd041 	mrs	x1, tpidr_el0
  4330f4:	8b000020 	add	x0, x1, x0
  4330f8:	91002000 	add	x0, x0, #0x8
  4330fc:	d65f03c0 	ret
  433100:	d2a00000 	movz	x0, #0x0, lsl #16
  433104:	f2800a00 	movk	x0, #0x50
  433108:	d53bd041 	mrs	x1, tpidr_el0
  43310c:	8b000020 	add	x0, x1, x0
  433110:	91004000 	add	x0, x0, #0x10
  433114:	d65f03c0 	ret
--
  433134:	f9400021 	ldr	x1, [x1]
  433138:	a9440823 	ldp	x3, x2, [x1, #64]
  43313c:	f9402c21 	ldr	x1, [x1, #88]
  433140:	91040063 	add	x3, x3, #0x100
  433144:	91080042 	add	x2, x2, #0x200
  433148:	f8256803 	str	x3, [x0, x5]
  43314c:	91080020 	add	x0, x1, #0x200
  433150:	a9008082 	stp	x2, x0, [x4, #8]
  433154:	d65f03c0 	ret
  433158:	d53b4401 	mrs	x1, fpcr
  43315c:	12184000 	and	w0, w0, #0x1ffff00
  433160:	529c1fe2 	mov	w2, #0xe0ff                	// #57599
  433164:	72bfc1e2 	movk	w2, #0xfe0f, lsl #16
  433168:	120c6000 	and	w0, w0, #0xfff01fff
  43316c:	0a020021 	and	w1, w1, w2
  433170:	2a010000 	orr	w0, w0, w1
  433174:	d51b4400 	msr	fpcr, x0
  433178:	d65f03c0 	ret
--
  433290:	f9004881 	str	x1, [x4, #144]
  433294:	f945c4c1 	ldr	x1, [x6, #2952]
  433298:	f940a7e2 	ldr	x2, [sp, #328]
  43329c:	f9400023 	ldr	x3, [x1]
  4332a0:	eb030042 	subs	x2, x2, x3
  4332a4:	d2800003 	mov	x3, #0x0                   	// #0
  4332a8:	54000341 	b.ne	433310 <fgetc+0x1ff00>  // b.any
  4332ac:	a8d57bfd 	ldp	x29, x30, [sp], #336
  4332b0:	d65f03c0 	ret
--
  43332c:	54000049 	b.ls	433334 <fgetc+0x1ff24>  // b.plast
  433330:	17ffff94 	b	433180 <fgetc+0x1fd70>
  433334:	b00002e0 	adrp	x0, 490000 <fgetc+0x7cbf0>
  433338:	f946e000 	ldr	x0, [x0, #3520]
  43333c:	d53bd041 	mrs	x1, tpidr_el0
  433340:	528002c2 	mov	w2, #0x16                  	// #22
  433344:	b8206822 	str	w2, [x1, x0]
  433348:	12800000 	mov	w0, #0xffffffff            	// #-1
  43334c:	d65f03c0 	ret
--
  433604:	f94247e1 	ldr	x1, [sp, #1160]
  433608:	f9400002 	ldr	x2, [x0]
  43360c:	eb020021 	subs	x1, x1, x2
  433610:	d2800002 	mov	x2, #0x0                   	// #0
  433614:	54000a01 	b.ne	433754 <fgetc+0x20344>  // b.any
  433618:	a9407bfd 	ldp	x29, x30, [sp]
  43361c:	a9446bf9 	ldp	x25, x26, [sp, #64]
  433620:	911243ff 	add	sp, sp, #0x490
  433624:	d65f03c0 	ret
--
  4338cc:	910003bf 	mov	sp, x29
  4338d0:	2a0403e0 	mov	w0, w4
  4338d4:	a94153f3 	ldp	x19, x20, [sp, #16]
  4338d8:	a9425bf5 	ldp	x21, x22, [sp, #32]
  4338dc:	a94363f7 	ldp	x23, x24, [sp, #48]
  4338e0:	a9446bf9 	ldp	x25, x26, [sp, #64]
  4338e4:	a94573fb 	ldp	x27, x28, [sp, #80]
  4338e8:	a8c97bfd 	ldp	x29, x30, [sp], #144
  4338ec:	d65f03c0 	ret
--
  433b60:	d53bd041 	mrs	x1, tpidr_el0
  433b64:	b00002e0 	adrp	x0, 490000 <fgetc+0x7cbf0>
  433b68:	f946e000 	ldr	x0, [x0, #3520]
  433b6c:	528002c2 	mov	w2, #0x16                  	// #22
  433b70:	a94153f3 	ldp	x19, x20, [sp, #16]
  433b74:	b8206822 	str	w2, [x1, x0]
  433b78:	12800000 	mov	w0, #0xffffffff            	// #-1
  433b7c:	a8c37bfd 	ldp	x29, x30, [sp], #48
  433b80:	d65f03c0 	ret
  433b84:	b00002e0 	adrp	x0, 490000 <fgetc+0x7cbf0>
  433b88:	f946e000 	ldr	x0, [x0, #3520]
  433b8c:	d53bd041 	mrs	x1, tpidr_el0
  433b90:	528002c2 	mov	w2, #0x16                  	// #22
  433b94:	b8206822 	str	w2, [x1, x0]
  433b98:	12800000 	mov	w0, #0xffffffff            	// #-1
  433b9c:	d65f03c0 	ret
--
  433c48:	9400773a 	bl	451930 <fgetc+0x3e520>
  433c4c:	b9003bff 	str	wzr, [sp, #56]
  433c50:	7100041f 	cmp	w0, #0x1
  433c54:	540001cc 	b.gt	433c8c <fgetc+0x2087c>
  433c58:	a94153f3 	ldp	x19, x20, [sp, #16]
  433c5c:	a9425bf5 	ldp	x21, x22, [sp, #32]
  433c60:	b9403be0 	ldr	w0, [sp, #56]
  433c64:	a8c47bfd 	ldp	x29, x30, [sp], #64
  433c68:	d65f03c0 	ret
--
  433d2c:	f900029f 	str	xzr, [x20]
  433d30:	94007700 	bl	451930 <fgetc+0x3e520>
  433d34:	7100041f 	cmp	w0, #0x1
  433d38:	5400020c 	b.gt	433d78 <fgetc+0x20968>
  433d3c:	52800000 	mov	w0, #0x0                   	// #0
  433d40:	a94153f3 	ldp	x19, x20, [sp, #16]
  433d44:	f94013f5 	ldr	x21, [sp, #32]
  433d48:	a8c37bfd 	ldp	x29, x30, [sp], #48
  433d4c:	d65f03c0 	ret
--
  433d80:	d2800022 	mov	x2, #0x1                   	// #1
  433d84:	d2800003 	mov	x3, #0x0                   	// #0
  433d88:	d2800c48 	mov	x8, #0x62                  	// #98
  433d8c:	d4000001 	svc	#0x0
  433d90:	52800000 	mov	w0, #0x0                   	// #0
  433d94:	a94153f3 	ldp	x19, x20, [sp, #16]
  433d98:	f94013f5 	ldr	x21, [sp, #32]
  433d9c:	a8c37bfd 	ldp	x29, x30, [sp], #48
  433da0:	d65f03c0 	ret
--
  433e1c:	d53bd042 	mrs	x2, tpidr_el0
  433e20:	528002c3 	mov	w3, #0x16                  	// #22
  433e24:	d2800000 	mov	x0, #0x0                   	// #0
  433e28:	b8216843 	str	w3, [x2, x1]
  433e2c:	a9425bf5 	ldp	x21, x22, [sp, #32]
  433e30:	a94363f7 	ldp	x23, x24, [sp, #48]
  433e34:	a9446bf9 	ldp	x25, x26, [sp, #64]
  433e38:	a8c57bfd 	ldp	x29, x30, [sp], #80
  433e3c:	d65f03c0 	ret
--
  434010:	54fffb43 	b.cc	433f78 <fgetc+0x20b68>  // b.lo, b.ul, b.last
  434014:	7100035f 	cmp	w26, #0x0
  434018:	da8704e0 	cneg	x0, x7, ne  // ne = any
  43401c:	a94153f3 	ldp	x19, x20, [sp, #16]
  434020:	a9425bf5 	ldp	x21, x22, [sp, #32]
  434024:	a94363f7 	ldp	x23, x24, [sp, #48]
  434028:	a9446bf9 	ldp	x25, x26, [sp, #64]
  43402c:	a8c57bfd 	ldp	x29, x30, [sp], #80
  434030:	d65f03c0 	ret
--
  43429c:	9a9f97e0 	cset	x0, hi  // hi = pmore
  4342a0:	ab0800a5 	adds	x5, x5, x8
  4342a4:	f8266965 	str	x5, [x11, x6]
  4342a8:	8b448004 	add	x4, x0, x4, lsr #32
  4342ac:	910020c6 	add	x6, x6, #0x8
  4342b0:	9a030080 	adc	x0, x4, x3
  4342b4:	eb06005f 	cmp	x2, x6
  4342b8:	54fffd41 	b.ne	434260 <fgetc+0x20e50>  // b.any
  4342bc:	d65f03c0 	ret
--
  4342fc:	d503201f 	nop
  434300:	9ac20864 	udiv	x4, x3, x2
  434304:	eb02007f 	cmp	x3, x2
  434308:	9b028c85 	msub	x5, x4, x2, x3
  43430c:	aa0403e3 	mov	x3, x4
  434310:	38656824 	ldrb	w4, [x1, x5]
  434314:	381ffc04 	strb	w4, [x0, #-1]!
  434318:	54ffff42 	b.cs	434300 <fgetc+0x20ef0>  // b.hs, b.nlast
  43431c:	d65f03c0 	ret
--
  434394:	f100247f 	cmp	x3, #0x9
  434398:	d343fc42 	lsr	x2, x2, #3
  43439c:	8b020844 	add	x4, x2, x2, lsl #2
  4343a0:	cb040464 	sub	x4, x3, x4, lsl #1
  4343a4:	aa0203e3 	mov	x3, x2
  4343a8:	38646822 	ldrb	w2, [x1, x4]
  4343ac:	381ffc02 	strb	w2, [x0, #-1]!
  4343b0:	54ffff08 	b.hi	434390 <fgetc+0x20f80>  // b.pmore
  4343b4:	d65f03c0 	ret
--
  434414:	8b0000c0 	add	x0, x6, x0
  434418:	f945c529 	ldr	x9, [x9, #2952]
  43441c:	f9401fe1 	ldr	x1, [sp, #56]
  434420:	f9400122 	ldr	x2, [x9]
  434424:	eb020021 	subs	x1, x1, x2
  434428:	d2800002 	mov	x2, #0x0                   	// #0
  43442c:	540000a1 	b.ne	434440 <fgetc+0x21030>  // b.any
  434430:	a8c47bfd 	ldp	x29, x30, [sp], #64
  434434:	d65f03c0 	ret
--
  43449c:	a9410662 	ldp	x2, x1, [x19, #16]
  4344a0:	91000423 	add	x3, x1, #0x1
  4344a4:	f9000e63 	str	x3, [x19, #24]
  4344a8:	f8217840 	str	x0, [x2, x1, lsl #3]
  4344ac:	2a1503e0 	mov	w0, w21
  4344b0:	a94153f3 	ldp	x19, x20, [sp, #16]
  4344b4:	f94013f5 	ldr	x21, [sp, #32]
  4344b8:	a8c37bfd 	ldp	x29, x30, [sp], #48
  4344bc:	d65f03c0 	ret
--
  43453c:	f8736a95 	ldr	x21, [x20, x19]
  434540:	97ff5628 	bl	409de0 <main212+0x8fec>
  434544:	f8336a80 	str	x0, [x20, x19]
  434548:	1100c2b5 	add	w21, w21, #0x30
  43454c:	2a1503e0 	mov	w0, w21
  434550:	a94153f3 	ldp	x19, x20, [sp, #16]
  434554:	f94013f5 	ldr	x21, [sp, #32]
  434558:	a8c37bfd 	ldp	x29, x30, [sp], #48
  43455c:	d65f03c0 	ret
--
  434568:	51000401 	sub	w1, w0, #0x1
  43456c:	b9000a61 	str	w1, [x19, #8]
  434570:	7100001f 	cmp	w0, #0x0
  434574:	54fff7ed 	b.le	434470 <fgetc+0x21060>
  434578:	2a1503e0 	mov	w0, w21
  43457c:	a94153f3 	ldp	x19, x20, [sp, #16]
  434580:	f94013f5 	ldr	x21, [sp, #32]
  434584:	a8c37bfd 	ldp	x29, x30, [sp], #48
  434588:	d65f03c0 	ret
  43458c:	d2800020 	mov	x0, #0x1                   	// #1
  434590:	f9000e60 	str	x0, [x19, #24]
  434594:	1100c2b5 	add	w21, w21, #0x30
  434598:	2a1503e0 	mov	w0, w21
  43459c:	a94153f3 	ldp	x19, x20, [sp, #16]
  4345a0:	f94013f5 	ldr	x21, [sp, #32]
  4345a4:	a8c37bfd 	ldp	x29, x30, [sp], #48
  4345a8:	d65f03c0 	ret
--
  43472c:	54000741 	b.ne	434814 <fgetc+0x21404>  // b.any
  434730:	aa1303e0 	mov	x0, x19
  434734:	a9407bfd 	ldp	x29, x30, [sp]
  434738:	a94153f3 	ldp	x19, x20, [sp, #16]
  43473c:	a9425bf5 	ldp	x21, x22, [sp, #32]
  434740:	a94363f7 	ldp	x23, x24, [sp, #48]
  434744:	a9446bf9 	ldp	x25, x26, [sp, #64]
  434748:	9112c3ff 	add	sp, sp, #0x4b0
  43474c:	d65f03c0 	ret
--
  434830:	38401c22 	ldrb	w2, [x1, #1]!
  434834:	11000400 	add	w0, w0, #0x1
  434838:	7103fc5f 	cmp	w2, #0xff
  43483c:	540000a0 	b.eq	434850 <fgetc+0x21440>  // b.none
  434840:	340000a2 	cbz	w2, 434854 <fgetc+0x21444>
  434844:	6b020063 	subs	w3, w3, w2
  434848:	2a0203e4 	mov	w4, w2
  43484c:	54ffff28 	b.hi	434830 <fgetc+0x21420>  // b.pmore
  434850:	d65f03c0 	ret
  434854:	51000463 	sub	w3, w3, #0x1
  434858:	1ac40863 	udiv	w3, w3, w4
  43485c:	0b030000 	add	w0, w0, w3
  434860:	d65f03c0 	ret
--
  434a88:	910003bf 	mov	sp, x29
  434a8c:	2a1703e0 	mov	w0, w23
  434a90:	a94153f3 	ldp	x19, x20, [sp, #16]
  434a94:	a9425bf5 	ldp	x21, x22, [sp, #32]
  434a98:	a94363f7 	ldp	x23, x24, [sp, #48]
  434a9c:	a9446bf9 	ldp	x25, x26, [sp, #64]
  434aa0:	a94573fb 	ldp	x27, x28, [sp, #80]
  434aa4:	a8d57bfd 	ldp	x29, x30, [sp], #336
  434aa8:	d65f03c0 	ret
--
  43696c:	d503201f 	nop
  436970:	39400022 	ldrb	w2, [x1]
  436974:	51000442 	sub	w2, w2, #0x1
  436978:	12001c42 	and	w2, w2, #0xff
  43697c:	7103f45f 	cmp	w2, #0xfd
  436980:	54000048 	b.hi	436988 <fgetc+0x23578>  // b.pmore
  436984:	17fff7a7 	b	434820 <fgetc+0x21410>
  436988:	52800000 	mov	w0, #0x0                   	// #0
  43698c:	d65f03c0 	ret
--
  436a00:	94006bcc 	bl	451930 <fgetc+0x3e520>
  436a04:	7100041f 	cmp	w0, #0x1
  436a08:	5400020c 	b.gt	436a48 <fgetc+0x23638>
  436a0c:	a9425bf5 	ldp	x21, x22, [sp, #32]
  436a10:	2a1703e0 	mov	w0, w23
  436a14:	a94153f3 	ldp	x19, x20, [sp, #16]
  436a18:	f9401bf7 	ldr	x23, [sp, #48]
  436a1c:	a8c47bfd 	ldp	x29, x30, [sp], #64
  436a20:	d65f03c0 	ret
--
  43753c:	54005e21 	b.ne	438100 <fgetc+0x24cf0>  // b.any
  437540:	2a1403e0 	mov	w0, w20
  437544:	a94153f3 	ldp	x19, x20, [sp, #16]
  437548:	a9425bf5 	ldp	x21, x22, [sp, #32]
  43754c:	a94363f7 	ldp	x23, x24, [sp, #48]
  437550:	a9446bf9 	ldp	x25, x26, [sp, #64]
  437554:	a94573fb 	ldp	x27, x28, [sp, #80]
  437558:	a8d97bfd 	ldp	x29, x30, [sp], #400
  43755c:	d65f03c0 	ret
--
  43813c:	f946e000 	ldr	x0, [x0, #3520]
  438140:	d53bd041 	mrs	x1, tpidr_el0
  438144:	528002c2 	mov	w2, #0x16                  	// #22
  438148:	12800013 	mov	w19, #0xffffffff            	// #-1
  43814c:	b8206822 	str	w2, [x1, x0]
  438150:	2a1303e0 	mov	w0, w19
  438154:	a94153f3 	ldp	x19, x20, [sp, #16]
  438158:	a8c47bfd 	ldp	x29, x30, [sp], #64
  43815c:	d65f03c0 	ret
--
  438214:	940065c7 	bl	451930 <fgetc+0x3e520>
  438218:	7100041f 	cmp	w0, #0x1
  43821c:	5400022c 	b.gt	438260 <fgetc+0x24e50>
  438220:	2a1303e0 	mov	w0, w19
  438224:	a94153f3 	ldp	x19, x20, [sp, #16]
  438228:	a9425bf5 	ldp	x21, x22, [sp, #32]
  43822c:	f9401bf7 	ldr	x23, [sp, #48]
  438230:	a8c47bfd 	ldp	x29, x30, [sp], #64
  438234:	d65f03c0 	ret
--
  438310:	5400008d 	b.le	438320 <fgetc+0x24f10>
  438314:	b94008cb 	ldr	w11, [x6, #8]
  438318:	2a0203e9 	mov	w9, w2
  43831c:	aa0503ed 	mov	x13, x5
  438320:	f94000c6 	ldr	x6, [x6]
  438324:	b5fffda6 	cbnz	x6, 4382d8 <fgetc+0x24ec8>
  438328:	52800020 	mov	w0, #0x1                   	// #1
  43832c:	350000ab 	cbnz	w11, 438340 <fgetc+0x24f30>
  438330:	d65f03c0 	ret
  438334:	b9400042 	ldr	w2, [x2]
  438338:	35ffff42 	cbnz	w2, 438320 <fgetc+0x24f10>
  43833c:	17fffff3 	b	438308 <fgetc+0x24ef8>
  438340:	79401c22 	ldrh	w2, [x1, #14]
  438344:	52800000 	mov	w0, #0x0                   	// #0
  438348:	2a02016b 	orr	w11, w11, w2
  43834c:	79001c2b 	strh	w11, [x1, #14]
  438350:	f900018d 	str	x13, [x12]
  438354:	d65f03c0 	ret
  438358:	52800020 	mov	w0, #0x1                   	// #1
  43835c:	d65f03c0 	ret
--
  4383d4:	5400008a 	b.ge	4383e4 <fgetc+0x24fd4>  // b.tcont
  4383d8:	b94008cb 	ldr	w11, [x6, #8]
  4383dc:	2a0203e9 	mov	w9, w2
  4383e0:	aa0403ed 	mov	x13, x4
  4383e4:	f94000c6 	ldr	x6, [x6]
  4383e8:	b5fffd46 	cbnz	x6, 438390 <fgetc+0x24f80>
  4383ec:	52800020 	mov	w0, #0x1                   	// #1
  4383f0:	3500004b 	cbnz	w11, 4383f8 <fgetc+0x24fe8>
  4383f4:	d65f03c0 	ret
  4383f8:	79401c22 	ldrh	w2, [x1, #14]
  4383fc:	52800000 	mov	w0, #0x0                   	// #0
  438400:	2a02016b 	orr	w11, w11, w2
  438404:	79001c2b 	strh	w11, [x1, #14]
  438408:	f900018d 	str	x13, [x12]
  43840c:	d65f03c0 	ret
  438410:	52800020 	mov	w0, #0x1                   	// #1
  438414:	d65f03c0 	ret
--
  438484:	aa1303e1 	mov	x1, x19
  438488:	9400652a 	bl	451930 <fgetc+0x3e520>
  43848c:	7100041f 	cmp	w0, #0x1
  438490:	540001ac 	b.gt	4384c4 <fgetc+0x250b4>
  438494:	2a1403e0 	mov	w0, w20
  438498:	a94153f3 	ldp	x19, x20, [sp, #16]
  43849c:	a9425bf5 	ldp	x21, x22, [sp, #32]
  4384a0:	a8c37bfd 	ldp	x29, x30, [sp], #48
  4384a4:	d65f03c0 	ret
--
  4384cc:	d2800022 	mov	x2, #0x1                   	// #1
  4384d0:	d2800003 	mov	x3, #0x0                   	// #0
  4384d4:	d2800c48 	mov	x8, #0x62                  	// #98
  4384d8:	d4000001 	svc	#0x0
  4384dc:	2a1403e0 	mov	w0, w20
  4384e0:	a94153f3 	ldp	x19, x20, [sp, #16]
  4384e4:	a9425bf5 	ldp	x21, x22, [sp, #32]
  4384e8:	a8c37bfd 	ldp	x29, x30, [sp], #48
  4384ec:	d65f03c0 	ret
--
  438520:	f9000bf3 	str	x19, [sp, #16]
  438524:	f9404413 	ldr	x19, [x0, #136]
  438528:	b9400660 	ldr	w0, [x19, #4]
  43852c:	51000400 	sub	w0, w0, #0x1
  438530:	b9000660 	str	w0, [x19, #4]
  438534:	34000080 	cbz	w0, 438544 <fgetc+0x25134>
  438538:	f9400bf3 	ldr	x19, [sp, #16]
  43853c:	a8c27bfd 	ldp	x29, x30, [sp], #32
  438540:	d65f03c0 	ret
--
  4385fc:	531f7884 	lsl	w4, w4, #1
  438600:	5400010a 	b.ge	438620 <fgetc+0x25210>  // b.tcont
  438604:	b8404423 	ldr	w3, [x1], #4
  438608:	5100c063 	sub	w3, w3, #0x30
  43860c:	7100247f 	cmp	w3, #0x9
  438610:	54fffdc9 	b.ls	4385c8 <fgetc+0x251b8>  // b.plast
  438614:	d503201f 	nop
  438618:	f90000c2 	str	x2, [x6]
  43861c:	d65f03c0 	ret
--
  438644:	51000682 	sub	w2, w20, #0x1
  438648:	12001c42 	and	w2, w2, #0xff
  43864c:	7103f45f 	cmp	w2, #0xfd
  438650:	540000c9 	b.ls	438668 <fgetc+0x25258>  // b.plast
  438654:	aa1503e0 	mov	x0, x21
  438658:	a94153f3 	ldp	x19, x20, [sp, #16]
  43865c:	a9425bf5 	ldp	x21, x22, [sp, #32]
  438660:	a8c47bfd 	ldp	x29, x30, [sp], #64
  438664:	d65f03c0 	ret
--
  4386ec:	54fffde0 	b.eq	4386a8 <fgetc+0x25298>  // b.none
  4386f0:	eb0102df 	cmp	x22, x1
  4386f4:	54ffff23 	b.cc	4386d8 <fgetc+0x252c8>  // b.lo, b.ul, b.last
  4386f8:	aa1503e0 	mov	x0, x21
  4386fc:	a94153f3 	ldp	x19, x20, [sp, #16]
  438700:	a9425bf5 	ldp	x21, x22, [sp, #32]
  438704:	a94363f7 	ldp	x23, x24, [sp, #48]
  438708:	a8c47bfd 	ldp	x29, x30, [sp], #64
  43870c:	d65f03c0 	ret
--
  438880:	aa1703e0 	mov	x0, x23
  438884:	a9407bfd 	ldp	x29, x30, [sp]
  438888:	a94153f3 	ldp	x19, x20, [sp, #16]
  43888c:	a9425bf5 	ldp	x21, x22, [sp, #32]
  438890:	a94363f7 	ldp	x23, x24, [sp, #48]
  438894:	a9446bf9 	ldp	x25, x26, [sp, #64]
  438898:	f9402bfb 	ldr	x27, [sp, #80]
  43889c:	911203ff 	add	sp, sp, #0x480
  4388a0:	d65f03c0 	ret
--
  43898c:	540001e9 	b.ls	4389c8 <fgetc+0x255b8>  // b.plast
  438990:	91001060 	add	x0, x3, #0x4
  438994:	f9001080 	str	x0, [x4, #32]
  438998:	2a1503e0 	mov	w0, w21
  43899c:	b9000075 	str	w21, [x3]
  4389a0:	a94153f3 	ldp	x19, x20, [sp, #16]
  4389a4:	a9425bf5 	ldp	x21, x22, [sp, #32]
  4389a8:	a8c47bfd 	ldp	x29, x30, [sp], #64
  4389ac:	d65f03c0 	ret
--
  439178:	2a1403e0 	mov	w0, w20
  43917c:	a9417bfd 	ldp	x29, x30, [sp, #16]
  439180:	a94253f3 	ldp	x19, x20, [sp, #32]
  439184:	a9435bf5 	ldp	x21, x22, [sp, #48]
  439188:	a94463f7 	ldp	x23, x24, [sp, #64]
  43918c:	a9456bf9 	ldp	x25, x26, [sp, #80]
  439190:	a94673fb 	ldp	x27, x28, [sp, #96]
  439194:	912683ff 	add	sp, sp, #0x9a0
  439198:	d65f03c0 	ret
--
  43af68:	2a1c03e0 	mov	w0, w28
  43af6c:	a9437bfd 	ldp	x29, x30, [sp, #48]
  43af70:	a94453f3 	ldp	x19, x20, [sp, #64]
  43af74:	a9455bf5 	ldp	x21, x22, [sp, #80]
  43af78:	a94663f7 	ldp	x23, x24, [sp, #96]
  43af7c:	a9476bf9 	ldp	x25, x26, [sp, #112]
  43af80:	a94873fb 	ldp	x27, x28, [sp, #128]
  43af84:	911843ff 	add	sp, sp, #0x610
  43af88:	d65f03c0 	ret
--
  43d8cc:	54000701 	b.ne	43d9ac <fgetc+0x2a59c>  // b.any
  43d8d0:	2a1503e0 	mov	w0, w21
  43d8d4:	d2904e0c 	mov	x12, #0x8270                	// #33392
  43d8d8:	a9407bfd 	ldp	x29, x30, [sp]
  43d8dc:	a94153f3 	ldp	x19, x20, [sp, #16]
  43d8e0:	a9425bf5 	ldp	x21, x22, [sp, #32]
  43d8e4:	a94363f7 	ldp	x23, x24, [sp, #48]
  43d8e8:	8b2c63ff 	add	sp, sp, x12
  43d8ec:	d65f03c0 	ret
--
  43da34:	531f7884 	lsl	w4, w4, #1
  43da38:	5400010a 	b.ge	43da58 <fgetc+0x2a648>  // b.tcont
  43da3c:	b8404423 	ldr	w3, [x1], #4
  43da40:	5100c063 	sub	w3, w3, #0x30
  43da44:	7100247f 	cmp	w3, #0x9
  43da48:	54fffdc9 	b.ls	43da00 <fgetc+0x2a5f0>  // b.plast
  43da4c:	d503201f 	nop
  43da50:	f90000c2 	str	x2, [x6]
  43da54:	d65f03c0 	ret
--
  43dc44:	f9000e60 	str	x0, [x19, #24]
  43dc48:	528004a1 	mov	w1, #0x25                  	// #37
  43dc4c:	94000bf7 	bl	440c28 <fgetc+0x2d818>
  43dc50:	f9001260 	str	x0, [x19, #32]
  43dc54:	aa1503e0 	mov	x0, x21
  43dc58:	a94153f3 	ldp	x19, x20, [sp, #16]
  43dc5c:	f94013f5 	ldr	x21, [sp, #32]
  43dc60:	a8c47bfd 	ldp	x29, x30, [sp], #64
  43dc64:	d65f03c0 	ret
--
  43dcec:	f9401fe0 	ldr	x0, [sp, #56]
  43dcf0:	35fffaa2 	cbnz	w2, 43dc44 <fgetc+0x2a834>
  43dcf4:	d1001000 	sub	x0, x0, #0x4
  43dcf8:	a9018260 	stp	x0, x0, [x19, #24]
  43dcfc:	aa1503e0 	mov	x0, x21
  43dd00:	a94153f3 	ldp	x19, x20, [sp, #16]
  43dd04:	f94013f5 	ldr	x21, [sp, #32]
  43dd08:	a8c47bfd 	ldp	x29, x30, [sp], #64
  43dd0c:	d65f03c0 	ret
--
  43e250:	f94067e1 	ldr	x1, [sp, #200]
  43e254:	f9400282 	ldr	x2, [x20]
  43e258:	eb020021 	subs	x1, x1, x2
  43e25c:	d2800002 	mov	x2, #0x0                   	// #0
  43e260:	54000541 	b.ne	43e308 <fgetc+0x2aef8>  // b.any
  43e264:	a94153f3 	ldp	x19, x20, [sp, #16]
  43e268:	a9425bf5 	ldp	x21, x22, [sp, #32]
  43e26c:	a8cd7bfd 	ldp	x29, x30, [sp], #208
  43e270:	d65f03c0 	ret
--
  43e354:	b4000180 	cbz	x0, 43e384 <fgetc+0x2af74>
  43e358:	8b130002 	add	x2, x0, x19
  43e35c:	52800023 	mov	w3, #0x1                   	// #1
  43e360:	aa1403e0 	mov	x0, x20
  43e364:	940002c9 	bl	43ee88 <fgetc+0x2ba78>
  43e368:	52800020 	mov	w0, #0x1                   	// #1
  43e36c:	a94153f3 	ldp	x19, x20, [sp, #16]
  43e370:	a8c27bfd 	ldp	x29, x30, [sp], #32
  43e374:	d65f03c0 	ret
  43e378:	97ffff88 	bl	43e198 <fgetc+0x2ad88>
  43e37c:	f9401e81 	ldr	x1, [x20, #56]
  43e380:	17ffffea 	b	43e328 <fgetc+0x2af18>
  43e384:	12800000 	mov	w0, #0xffffffff            	// #-1
  43e388:	a94153f3 	ldp	x19, x20, [sp, #16]
  43e38c:	a8c27bfd 	ldp	x29, x30, [sp], #32
  43e390:	d65f03c0 	ret
--
  43e474:	aa1603f4 	mov	x20, x22
  43e478:	54000701 	b.ne	43e558 <fgetc+0x2b148>  // b.any
  43e47c:	a9425bf5 	ldp	x21, x22, [sp, #32]
  43e480:	a94363f7 	ldp	x23, x24, [sp, #48]
  43e484:	aa1403e0 	mov	x0, x20
  43e488:	a94153f3 	ldp	x19, x20, [sp, #16]
  43e48c:	f94023f9 	ldr	x25, [sp, #64]
  43e490:	a8c57bfd 	ldp	x29, x30, [sp], #80
  43e494:	d65f03c0 	ret
--
  43e4b8:	34000280 	cbz	w0, 43e508 <fgetc+0x2b0f8>
  43e4bc:	d2800014 	mov	x20, #0x0                   	// #0
  43e4c0:	aa1403e0 	mov	x0, x20
  43e4c4:	a94153f3 	ldp	x19, x20, [sp, #16]
  43e4c8:	a9425bf5 	ldp	x21, x22, [sp, #32]
  43e4cc:	a94363f7 	ldp	x23, x24, [sp, #48]
  43e4d0:	f94023f9 	ldr	x25, [sp, #64]
  43e4d4:	a8c57bfd 	ldp	x29, x30, [sp], #80
  43e4d8:	d65f03c0 	ret
--
  43e718:	34000620 	cbz	w0, 43e7dc <fgetc+0x2b3cc>
  43e71c:	a94153f3 	ldp	x19, x20, [sp, #16]
  43e720:	a9425bf5 	ldp	x21, x22, [sp, #32]
  43e724:	a94363f7 	ldp	x23, x24, [sp, #48]
  43e728:	aa1b03e0 	mov	x0, x27
  43e72c:	a9446bf9 	ldp	x25, x26, [sp, #64]
  43e730:	a94573fb 	ldp	x27, x28, [sp, #80]
  43e734:	a8c67bfd 	ldp	x29, x30, [sp], #96
  43e738:	d65f03c0 	ret
--
  43e79c:	9280001b 	mov	x27, #0xffffffffffffffff    	// #-1
  43e7a0:	aa1b03e0 	mov	x0, x27
  43e7a4:	a94153f3 	ldp	x19, x20, [sp, #16]
  43e7a8:	a9425bf5 	ldp	x21, x22, [sp, #32]
  43e7ac:	a94363f7 	ldp	x23, x24, [sp, #48]
  43e7b0:	a9446bf9 	ldp	x25, x26, [sp, #64]
  43e7b4:	a94573fb 	ldp	x27, x28, [sp, #80]
  43e7b8:	a8c67bfd 	ldp	x29, x30, [sp], #96
  43e7bc:	d65f03c0 	ret
--
  43e95c:	b5fffd74 	cbnz	x20, 43e908 <fgetc+0x2b4f8>
  43e960:	a94573fb 	ldp	x27, x28, [sp, #80]
  43e964:	cb1802c0 	sub	x0, x22, x24
  43e968:	a94153f3 	ldp	x19, x20, [sp, #16]
  43e96c:	a9425bf5 	ldp	x21, x22, [sp, #32]
  43e970:	a94363f7 	ldp	x23, x24, [sp, #48]
  43e974:	a9446bf9 	ldp	x25, x26, [sp, #64]
  43e978:	a8c67bfd 	ldp	x29, x30, [sp], #96
  43e97c:	d65f03c0 	ret
--
  43e9dc:	f90006bc 	str	x28, [x21, #8]
  43e9e0:	8b180260 	add	x0, x19, x24
  43e9e4:	a94153f3 	ldp	x19, x20, [sp, #16]
  43e9e8:	a9425bf5 	ldp	x21, x22, [sp, #32]
  43e9ec:	a94363f7 	ldp	x23, x24, [sp, #48]
  43e9f0:	a9446bf9 	ldp	x25, x26, [sp, #64]
  43e9f4:	a94573fb 	ldp	x27, x28, [sp, #80]
  43e9f8:	a8c67bfd 	ldp	x29, x30, [sp], #96
  43e9fc:	d65f03c0 	ret
--
  43eb50:	eb010000 	subs	x0, x0, x1
  43eb54:	d2800001 	mov	x1, #0x0                   	// #0
  43eb58:	540004a1 	b.ne	43ebec <fgetc+0x2b7dc>  // b.any
  43eb5c:	aa1603e0 	mov	x0, x22
  43eb60:	a94153f3 	ldp	x19, x20, [sp, #16]
  43eb64:	a9425bf5 	ldp	x21, x22, [sp, #32]
  43eb68:	a94363f7 	ldp	x23, x24, [sp, #48]
  43eb6c:	a8ca7bfd 	ldp	x29, x30, [sp], #160
  43eb70:	d65f03c0 	ret
--
  43ec98:	b5ffff83 	cbnz	x3, 43ec88 <fgetc+0x2b878>
  43ec9c:	52800000 	mov	w0, #0x0                   	// #0
  43eca0:	a94153f3 	ldp	x19, x20, [sp, #16]
  43eca4:	a9425bf5 	ldp	x21, x22, [sp, #32]
  43eca8:	a94363f7 	ldp	x23, x24, [sp, #48]
  43ecac:	a9446bf9 	ldp	x25, x26, [sp, #64]
  43ecb0:	a94573fb 	ldp	x27, x28, [sp, #80]
  43ecb4:	a8c67bfd 	ldp	x29, x30, [sp], #96
  43ecb8:	d65f03c0 	ret
--
  43edf4:	cb000020 	sub	x0, x1, x0
  43edf8:	9342fc00 	asr	x0, x0, #2
  43edfc:	b40000c2 	cbz	x2, 43ee14 <fgetc+0x2ba04>
  43ee00:	b9801041 	ldrsw	x1, [x2, #16]
  43ee04:	f9400042 	ldr	x2, [x2]
  43ee08:	eb01001f 	cmp	x0, x1
  43ee0c:	9a81d000 	csel	x0, x0, x1, le
  43ee10:	b5ffff82 	cbnz	x2, 43ee00 <fgetc+0x2b9f0>
  43ee14:	d65f03c0 	ret
--
  43ee28:	f9402824 	ldr	x4, [x1, #80]
  43ee2c:	b9000002 	str	w2, [x0]
  43ee30:	f9400422 	ldr	x2, [x1, #8]
  43ee34:	f9002822 	str	x2, [x1, #80]
  43ee38:	f9402020 	ldr	x0, [x1, #64]
  43ee3c:	a9001020 	stp	x0, x4, [x1]
  43ee40:	f9000820 	str	x0, [x1, #16]
  43ee44:	f9002023 	str	x3, [x1, #64]
  43ee48:	d65f03c0 	ret
--
  43ee60:	b9000002 	str	w2, [x0]
  43ee64:	f9402020 	ldr	x0, [x1, #64]
  43ee68:	f9000820 	str	x0, [x1, #16]
  43ee6c:	f9400422 	ldr	x2, [x1, #8]
  43ee70:	f9002023 	str	x3, [x1, #64]
  43ee74:	f9402820 	ldr	x0, [x1, #80]
  43ee78:	a9000020 	stp	x0, x0, [x1]
  43ee7c:	f9002822 	str	x2, [x1, #80]
  43ee80:	d65f03c0 	ret
--
  43eec0:	121c7880 	and	w0, w4, #0xfffffff7
  43eec4:	321d0084 	orr	w4, w4, #0x8
  43eec8:	a90350b5 	stp	x21, x20, [x5, #48]
  43eecc:	1a800084 	csel	w4, w4, w0, eq  // eq = none
  43eed0:	a9425bf5 	ldp	x21, x22, [sp, #32]
  43eed4:	b9007664 	str	w4, [x19, #116]
  43eed8:	a94153f3 	ldp	x19, x20, [sp, #16]
  43eedc:	a8c37bfd 	ldp	x29, x30, [sp], #48
  43eee0:	d65f03c0 	ret
--
  43ef34:	d1001280 	sub	x0, x20, #0x4
  43ef38:	f9000260 	str	x0, [x19]
  43ef3c:	2a1603e0 	mov	w0, w22
  43ef40:	b81fc296 	stur	w22, [x20, #-4]
  43ef44:	a94153f3 	ldp	x19, x20, [sp, #16]
  43ef48:	a9425bf5 	ldp	x21, x22, [sp, #32]
  43ef4c:	a94363f7 	ldp	x23, x24, [sp, #48]
  43ef50:	a8c57bfd 	ldp	x29, x30, [sp], #80
  43ef54:	d65f03c0 	ret
--
  43f124:	540000c0 	b.eq	43f13c <fgetc+0x2bd2c>  // b.none
  43f128:	f9405261 	ldr	x1, [x19, #160]
  43f12c:	f9400020 	ldr	x0, [x1]
  43f130:	91001002 	add	x2, x0, #0x4
  43f134:	b9400000 	ldr	w0, [x0]
  43f138:	f9000022 	str	x2, [x1]
  43f13c:	a94153f3 	ldp	x19, x20, [sp, #16]
  43f140:	a8c27bfd 	ldp	x29, x30, [sp], #32
  43f144:	d65f03c0 	ret
--
  43f28c:	8b040277 	add	x23, x19, x4
  43f290:	cb020294 	sub	x20, x20, x2
  43f294:	b5fffd94 	cbnz	x20, 43f244 <fgetc+0x2be34>
  43f298:	aa1603e0 	mov	x0, x22
  43f29c:	a94153f3 	ldp	x19, x20, [sp, #16]
  43f2a0:	a9425bf5 	ldp	x21, x22, [sp, #32]
  43f2a4:	a94363f7 	ldp	x23, x24, [sp, #48]
  43f2a8:	a8c47bfd 	ldp	x29, x30, [sp], #64
  43f2ac:	d65f03c0 	ret
  43f2b0:	cb020294 	sub	x20, x20, x2
  43f2b4:	aa1303e1 	mov	x1, x19
  43f2b8:	8b020a77 	add	x23, x19, x2, lsl #2
  43f2bc:	97ff8acb 	bl	421de8 <fgetc+0xe9d8>
  43f2c0:	f90012a0 	str	x0, [x21, #32]
  43f2c4:	17ffffdf 	b	43f240 <fgetc+0x2be30>
  43f2c8:	d2800000 	mov	x0, #0x0                   	// #0
  43f2cc:	d65f03c0 	ret
  43f2d0:	cb1402d6 	sub	x22, x22, x20
  43f2d4:	aa1603e0 	mov	x0, x22
  43f2d8:	a94153f3 	ldp	x19, x20, [sp, #16]
  43f2dc:	a9425bf5 	ldp	x21, x22, [sp, #32]
  43f2e0:	a94363f7 	ldp	x23, x24, [sp, #48]
  43f2e4:	a8c47bfd 	ldp	x29, x30, [sp], #64
  43f2e8:	d65f03c0 	ret
  43f2ec:	d503201f 	nop
  43f2f0:	f9405001 	ldr	x1, [x0, #160]
  43f2f4:	f9401822 	ldr	x2, [x1, #48]
  43f2f8:	b4000042 	cbz	x2, 43f300 <fgetc+0x2bef0>
  43f2fc:	d65f03c0 	ret
--
  43f314:	37080142 	tbnz	w2, #1, 43f33c <fgetc+0x2bf2c>
  43f318:	f9407021 	ldr	x1, [x1, #224]
  43f31c:	f9403421 	ldr	x1, [x1, #104]
  43f320:	d63f0020 	blr	x1
  43f324:	3100041f 	cmn	w0, #0x1
  43f328:	54000080 	b.eq	43f338 <fgetc+0x2bf28>  // b.none
  43f32c:	f9400bf3 	ldr	x19, [sp, #16]
  43f330:	a8c27bfd 	ldp	x29, x30, [sp], #32
  43f334:	d65f03c0 	ret
--
  43f374:	aa0003e1 	mov	x1, x0
  43f378:	52800023 	mov	w3, #0x1                   	// #1
  43f37c:	aa1303e0 	mov	x0, x19
  43f380:	91402022 	add	x2, x1, #0x8, lsl #12
  43f384:	97fffec1 	bl	43ee88 <fgetc+0x2ba78>
  43f388:	52800020 	mov	w0, #0x1                   	// #1
  43f38c:	f9400bf3 	ldr	x19, [sp, #16]
  43f390:	a8c27bfd 	ldp	x29, x30, [sp], #32
  43f394:	d65f03c0 	ret
  43f398:	12800000 	mov	w0, #0xffffffff            	// #-1
  43f39c:	f9400bf3 	ldr	x19, [sp, #16]
  43f3a0:	a8c27bfd 	ldp	x29, x30, [sp], #32
  43f3a4:	d65f03c0 	ret
--
  43f408:	f9000022 	str	x2, [x1]
  43f40c:	12147803 	and	w3, w0, #0xfffff7ff
  43f410:	f9000c22 	str	x2, [x1, #24]
  43f414:	52800000 	mov	w0, #0x0                   	// #0
  43f418:	f9001422 	str	x2, [x1, #40]
  43f41c:	b9000263 	str	w3, [x19]
  43f420:	f9400bf3 	ldr	x19, [sp, #16]
  43f424:	a8c27bfd 	ldp	x29, x30, [sp], #32
  43f428:	d65f03c0 	ret
--
  43f47c:	f9000423 	str	x3, [x1, #8]
  43f480:	f9002822 	str	x2, [x1, #80]
  43f484:	97ff7823 	bl	41d510 <fgetc+0xa100>
  43f488:	f9405260 	ldr	x0, [x19, #160]
  43f48c:	f9400bf3 	ldr	x19, [sp, #16]
  43f490:	a9047c1f 	stp	xzr, xzr, [x0, #64]
  43f494:	f900281f 	str	xzr, [x0, #80]
  43f498:	a8c27bfd 	ldp	x29, x30, [sp], #32
  43f49c:	d65f03c0 	ret
--
  43f560:	d61f0200 	br	x16
  43f564:	aa1303e0 	mov	x0, x19
  43f568:	97ffff90 	bl	43f3a8 <fgetc+0x2bf98>
  43f56c:	3100041f 	cmn	w0, #0x1
  43f570:	54fffac1 	b.ne	43f4c8 <fgetc+0x2c0b8>  // b.any
  43f574:	12800000 	mov	w0, #0xffffffff            	// #-1
  43f578:	a94153f3 	ldp	x19, x20, [sp, #16]
  43f57c:	a8c27bfd 	ldp	x29, x30, [sp], #32
  43f580:	d65f03c0 	ret
  43f584:	91001022 	add	x2, x1, #0x4
  43f588:	f9000002 	str	x2, [x0]
  43f58c:	b9400020 	ldr	w0, [x1]
  43f590:	a94153f3 	ldp	x19, x20, [sp, #16]
  43f594:	a8c27bfd 	ldp	x29, x30, [sp], #32
  43f598:	d65f03c0 	ret
--
  43f5bc:	97ff4e35 	bl	412e90 <printf+0x81a0>
  43f5c0:	17ffffc0 	b	43f4c0 <fgetc+0x2c0b0>
  43f5c4:	f9402000 	ldr	x0, [x0, #64]
  43f5c8:	b4fffb00 	cbz	x0, 43f528 <fgetc+0x2c118>
  43f5cc:	aa1303e0 	mov	x0, x19
  43f5d0:	97ffff9a 	bl	43f438 <fgetc+0x2c028>
  43f5d4:	17ffffd5 	b	43f528 <fgetc+0x2c118>
  43f5d8:	12800000 	mov	w0, #0xffffffff            	// #-1
  43f5dc:	d65f03c0 	ret
--
  43f6a8:	d61f0200 	br	x16
  43f6ac:	aa1303e0 	mov	x0, x19
  43f6b0:	97ffff3e 	bl	43f3a8 <fgetc+0x2bf98>
  43f6b4:	3100041f 	cmn	w0, #0x1
  43f6b8:	54fffac1 	b.ne	43f610 <fgetc+0x2c200>  // b.any
  43f6bc:	12800000 	mov	w0, #0xffffffff            	// #-1
  43f6c0:	a94153f3 	ldp	x19, x20, [sp, #16]
  43f6c4:	a8c27bfd 	ldp	x29, x30, [sp], #32
  43f6c8:	d65f03c0 	ret
  43f6cc:	b9400020 	ldr	w0, [x1]
  43f6d0:	a94153f3 	ldp	x19, x20, [sp, #16]
  43f6d4:	a8c27bfd 	ldp	x29, x30, [sp], #32
  43f6d8:	d65f03c0 	ret
--
  43f6fc:	97ff4de5 	bl	412e90 <printf+0x81a0>
  43f700:	17ffffc2 	b	43f608 <fgetc+0x2c1f8>
  43f704:	f9402660 	ldr	x0, [x19, #72]
  43f708:	b4fffb40 	cbz	x0, 43f670 <fgetc+0x2c260>
  43f70c:	aa1303e0 	mov	x0, x19
  43f710:	97ffff4a 	bl	43f438 <fgetc+0x2c028>
  43f714:	17ffffd7 	b	43f670 <fgetc+0x2c260>
  43f718:	12800000 	mov	w0, #0xffffffff            	// #-1
  43f71c:	d65f03c0 	ret
--
  43f788:	3100041f 	cmn	w0, #0x1
  43f78c:	54fffe21 	b.ne	43f750 <fgetc+0x2c340>  // b.any
  43f790:	cb1402b5 	sub	x21, x21, x20
  43f794:	aa1503e0 	mov	x0, x21
  43f798:	a94153f3 	ldp	x19, x20, [sp, #16]
  43f79c:	a9425bf5 	ldp	x21, x22, [sp, #32]
  43f7a0:	f9401bf7 	ldr	x23, [sp, #48]
  43f7a4:	a8c47bfd 	ldp	x29, x30, [sp], #64
  43f7a8:	d65f03c0 	ret
--
  43f86c:	d63f0040 	blr	x2
  43f870:	3100041f 	cmn	w0, #0x1
  43f874:	54000080 	b.eq	43f884 <fgetc+0x2c474>  // b.none
  43f878:	b9400261 	ldr	w1, [x19]
  43f87c:	121b7821 	and	w1, w1, #0xffffffef
  43f880:	b9000261 	str	w1, [x19]
  43f884:	a94153f3 	ldp	x19, x20, [sp, #16]
  43f888:	a8c37bfd 	ldp	x29, x30, [sp], #48
  43f88c:	d65f03c0 	ret
--
  43f8dc:	b85fc020 	ldur	w0, [x1, #-4]
  43f8e0:	3100041f 	cmn	w0, #0x1
  43f8e4:	54000080 	b.eq	43f8f4 <fgetc+0x2c4e4>  // b.none
  43f8e8:	b9400261 	ldr	w1, [x19]
  43f8ec:	121b7821 	and	w1, w1, #0xffffffef
  43f8f0:	b9000261 	str	w1, [x19]
  43f8f4:	a94153f3 	ldp	x19, x20, [sp, #16]
  43f8f8:	a8c27bfd 	ldp	x29, x30, [sp], #32
  43f8fc:	d65f03c0 	ret
--
  43f944:	aa0503e3 	mov	x3, x5
  43f948:	14000004 	b	43f958 <fgetc+0x2c548>
  43f94c:	b85fcc64 	ldr	w4, [x3, #-4]!
  43f950:	7100289f 	cmp	w4, #0xa
  43f954:	540000a0 	b.eq	43f968 <fgetc+0x2c558>  // b.none
  43f958:	eb01007f 	cmp	x3, x1
  43f95c:	54ffff88 	b.hi	43f94c <fgetc+0x2c53c>  // b.pmore
  43f960:	0b000040 	add	w0, w2, w0
  43f964:	d65f03c0 	ret
  43f968:	cb0300a0 	sub	x0, x5, x3
  43f96c:	9342fc00 	asr	x0, x0, #2
  43f970:	51000400 	sub	w0, w0, #0x1
  43f974:	d65f03c0 	ret
--
  43f9a8:	cb010000 	sub	x0, x0, x1
  43f9ac:	f9403261 	ldr	x1, [x19, #96]
  43f9b0:	d3428400 	ubfx	x0, x0, #2, #32
  43f9b4:	f9000281 	str	x1, [x20]
  43f9b8:	b9001280 	str	w0, [x20, #16]
  43f9bc:	f9003274 	str	x20, [x19, #96]
  43f9c0:	a94153f3 	ldp	x19, x20, [sp, #16]
  43f9c4:	a8c27bfd 	ldp	x29, x30, [sp], #32
  43f9c8:	d65f03c0 	ret
--
  43f9d0:	cb010000 	sub	x0, x0, x1
  43f9d4:	f9403261 	ldr	x1, [x19, #96]
  43f9d8:	d3428400 	ubfx	x0, x0, #2, #32
  43f9dc:	f9000281 	str	x1, [x20]
  43f9e0:	b9001280 	str	w0, [x20, #16]
  43f9e4:	f9003274 	str	x20, [x19, #96]
  43f9e8:	a94153f3 	ldp	x19, x20, [sp, #16]
  43f9ec:	a8c27bfd 	ldp	x29, x30, [sp], #32
  43f9f0:	d65f03c0 	ret
--
  43fa14:	f9405022 	ldr	x2, [x1, #160]
  43fa18:	f9400041 	ldr	x1, [x2]
  43fa1c:	374000e3 	tbnz	w3, #8, 43fa38 <fgetc+0x2c628>
  43fa20:	f9400842 	ldr	x2, [x2, #16]
  43fa24:	cb020021 	sub	x1, x1, x2
  43fa28:	d3428421 	ubfx	x1, x1, #2, #32
  43fa2c:	b9401000 	ldr	w0, [x0, #16]
  43fa30:	4b010000 	sub	w0, w0, w1
  43fa34:	d65f03c0 	ret
  43fa38:	f9400442 	ldr	x2, [x2, #8]
  43fa3c:	cb020021 	sub	x1, x1, x2
  43fa40:	d3428421 	ubfx	x1, x1, #2, #32
  43fa44:	17fffffa 	b	43fa2c <fgetc+0x2c61c>
  43fa48:	12800000 	mov	w0, #0xffffffff            	// #-1
  43fa4c:	d65f03c0 	ret
--
  43fa88:	aa0503e2 	mov	x2, x5
  43fa8c:	f9400423 	ldr	x3, [x1, #8]
  43fa90:	f9402824 	ldr	x4, [x1, #80]
  43fa94:	a9009424 	stp	x4, x5, [x1, #8]
  43fa98:	f9002823 	str	x3, [x1, #80]
  43fa9c:	8b20c842 	add	x2, x2, w0, sxtw #2
  43faa0:	52800000 	mov	w0, #0x0                   	// #0
  43faa4:	f9000022 	str	x2, [x1]
  43faa8:	d65f03c0 	ret
--
  43facc:	8b20c842 	add	x2, x2, w0, sxtw #2
  43fad0:	f9402024 	ldr	x4, [x1, #64]
  43fad4:	52800000 	mov	w0, #0x0                   	// #0
  43fad8:	f9000022 	str	x2, [x1]
  43fadc:	a9009025 	stp	x5, x4, [x1, #8]
  43fae0:	f9002023 	str	x3, [x1, #64]
  43fae4:	17fffff1 	b	43faa8 <fgetc+0x2c698>
  43fae8:	12800000 	mov	w0, #0xffffffff            	// #-1
  43faec:	d65f03c0 	ret
  43faf0:	f9403001 	ldr	x1, [x0, #96]
  43faf4:	b4000041 	cbz	x1, 43fafc <fgetc+0x2c6ec>
  43faf8:	f900301f 	str	xzr, [x0, #96]
  43fafc:	f9402401 	ldr	x1, [x0, #72]
  43fb00:	b4000041 	cbz	x1, 43fb08 <fgetc+0x2c6f8>
  43fb04:	17fffe4d 	b	43f438 <fgetc+0x2c028>
  43fb08:	d65f03c0 	ret
--
  43fb58:	12800881 	mov	w1, #0xffffffbb            	// #-69
  43fb5c:	0a010294 	and	w20, w20, w1
  43fb60:	71002a9f 	cmp	w20, #0xa
  43fb64:	54000100 	b.eq	43fb84 <fgetc+0x2c774>  // b.none
  43fb68:	a94153f3 	ldp	x19, x20, [sp, #16]
  43fb6c:	a9425bf5 	ldp	x21, x22, [sp, #32]
  43fb70:	f9401bf7 	ldr	x23, [sp, #48]
  43fb74:	a8c47bfd 	ldp	x29, x30, [sp], #64
  43fb78:	d65f03c0 	ret
--
  43fbf0:	6b00027f 	cmp	w19, w0
  43fbf4:	54000121 	b.ne	43fc18 <fgetc+0x2c808>  // b.any
  43fbf8:	121e0673 	and	w19, w19, #0xc
  43fbfc:	7100127f 	cmp	w19, #0x4
  43fc00:	54000100 	b.eq	43fc20 <fgetc+0x2c810>  // b.none
  43fc04:	a94153f3 	ldp	x19, x20, [sp, #16]
  43fc08:	a9425bf5 	ldp	x21, x22, [sp, #32]
  43fc0c:	a8c37bfd 	ldp	x29, x30, [sp], #48
  43fc10:	d65f03c0 	ret
  43fc14:	d65f03c0 	ret
--
  43fca4:	3833681f 	strb	wzr, [x0, x19]
  43fca8:	aa1303e2 	mov	x2, x19
  43fcac:	aa1403e1 	mov	x1, x20
  43fcb0:	a94153f3 	ldp	x19, x20, [sp, #16]
  43fcb4:	a8c27bfd 	ldp	x29, x30, [sp], #32
  43fcb8:	17ff017e 	b	4002b0 <.plt+0x10>
  43fcbc:	a94153f3 	ldp	x19, x20, [sp, #16]
  43fcc0:	a8c27bfd 	ldp	x29, x30, [sp], #32
  43fcc4:	d65f03c0 	ret
--
  43fdb0:	ea09016b 	ands	x11, x11, x9
  43fdb4:	9a861046 	csel	x6, x2, x6, ne  // ne = any
  43fdb8:	9a871167 	csel	x7, x11, x7, ne  // ne = any
  43fdbc:	dac010e5 	clz	x5, x7
  43fdc0:	910008a5 	add	x5, x5, #0x2
  43fdc4:	cb4504c0 	sub	x0, x6, x5, lsr #1
  43fdc8:	f10000ff 	cmp	x7, #0x0
  43fdcc:	9a9f1000 	csel	x0, x0, xzr, ne  // ne = any
  43fdd0:	d65f03c0 	ret
--
  43fe2c:	34000062 	cbz	w2, 43fe38 <fgetc+0x2ca28>
  43fe30:	91000421 	add	x1, x1, #0x1
  43fe34:	38206a9f 	strb	wzr, [x20, x0]
  43fe38:	f90002c1 	str	x1, [x22]
  43fe3c:	aa1403e0 	mov	x0, x20
  43fe40:	a94153f3 	ldp	x19, x20, [sp, #16]
  43fe44:	a9425bf5 	ldp	x21, x22, [sp, #32]
  43fe48:	a8c37bfd 	ldp	x29, x30, [sp], #48
  43fe4c:	d65f03c0 	ret
--
  43fe54:	39400260 	ldrb	w0, [x19]
  43fe58:	35fffd40 	cbnz	w0, 43fe00 <fgetc+0x2c9f0>
  43fe5c:	f90002d3 	str	x19, [x22]
  43fe60:	d2800014 	mov	x20, #0x0                   	// #0
  43fe64:	aa1403e0 	mov	x0, x20
  43fe68:	a94153f3 	ldp	x19, x20, [sp, #16]
  43fe6c:	a9425bf5 	ldp	x21, x22, [sp, #32]
  43fe70:	a8c37bfd 	ldp	x29, x30, [sp], #48
  43fe74:	d65f03c0 	ret
  43fe78:	f90002d4 	str	x20, [x22]
  43fe7c:	d2800014 	mov	x20, #0x0                   	// #0
  43fe80:	aa1403e0 	mov	x0, x20
  43fe84:	a94153f3 	ldp	x19, x20, [sp, #16]
  43fe88:	a9425bf5 	ldp	x21, x22, [sp, #32]
  43fe8c:	a8c37bfd 	ldp	x29, x30, [sp], #48
  43fe90:	d65f03c0 	ret
--
  43fe98:	b0000281 	adrp	x1, 490000 <fgetc+0x7cbf0>
  43fe9c:	b0000000 	adrp	x0, 440000 <fgetc+0x2cbf0>
  43fea0:	911c0000 	add	x0, x0, #0x700
  43fea4:	f946c021 	ldr	x1, [x1, #3456]
  43fea8:	f9400021 	ldr	x1, [x1]
  43feac:	d358fc22 	lsr	x2, x1, #24
  43feb0:	f101405f 	cmp	x2, #0x50
  43feb4:	54000040 	b.eq	43febc <fgetc+0x2caac>  // b.none
  43feb8:	d65f03c0 	ret
  43febc:	f27c2c3f 	tst	x1, #0xfff0
  43fec0:	b0000001 	adrp	x1, 440000 <fgetc+0x2cbf0>
  43fec4:	91200021 	add	x1, x1, #0x800
  43fec8:	9a811000 	csel	x0, x0, x1, ne  // ne = any
  43fecc:	d65f03c0 	ret
--
  4400f8:	54000c81 	b.ne	440288 <fgetc+0x2ce78>  // b.any
  4400fc:	a9407bfd 	ldp	x29, x30, [sp]
  440100:	a94153f3 	ldp	x19, x20, [sp, #16]
  440104:	a9425bf5 	ldp	x21, x22, [sp, #32]
  440108:	a94363f7 	ldp	x23, x24, [sp, #48]
  44010c:	a9446bf9 	ldp	x25, x26, [sp, #64]
  440110:	f9402bfb 	ldr	x27, [sp, #80]
  440114:	9121c3ff 	add	sp, sp, #0x870
  440118:	d65f03c0 	ret
--
  4403f4:	f940b7e1 	ldr	x1, [sp, #360]
  4403f8:	f94002c2 	ldr	x2, [x22]
  4403fc:	eb020021 	subs	x1, x1, x2
  440400:	d2800002 	mov	x2, #0x0                   	// #0
  440404:	54000781 	b.ne	4404f4 <fgetc+0x2d0e4>  // b.any
  440408:	a94153f3 	ldp	x19, x20, [sp, #16]
  44040c:	a9425bf5 	ldp	x21, x22, [sp, #32]
  440410:	a8d77bfd 	ldp	x29, x30, [sp], #368
  440414:	d65f03c0 	ret
--
  440538:	b5000120 	cbnz	x0, 44055c <fgetc+0x2d14c>
  44053c:	f90002df 	str	xzr, [x22]
  440540:	52800000 	mov	w0, #0x0                   	// #0
  440544:	f90002ff 	str	xzr, [x23]
  440548:	a94153f3 	ldp	x19, x20, [sp, #16]
  44054c:	a9425bf5 	ldp	x21, x22, [sp, #32]
  440550:	f9401bf7 	ldr	x23, [sp, #48]
  440554:	a8c47bfd 	ldp	x29, x30, [sp], #64
  440558:	d65f03c0 	ret
--
  4405bc:	d503201f 	nop
  4405c0:	b4000155 	cbz	x21, 4405e8 <fgetc+0x2d1d8>
  4405c4:	f90002f5 	str	x21, [x23]
  4405c8:	52800000 	mov	w0, #0x0                   	// #0
  4405cc:	a94153f3 	ldp	x19, x20, [sp, #16]
  4405d0:	a9425bf5 	ldp	x21, x22, [sp, #32]
  4405d4:	f9401bf7 	ldr	x23, [sp, #48]
  4405d8:	a8c47bfd 	ldp	x29, x30, [sp], #64
  4405dc:	d65f03c0 	ret
--
  44061c:	aa0103f6 	mov	x22, x1
  440620:	aa0203e0 	mov	x0, x2
  440624:	97feff37 	bl	400300 <.plt+0x60>
  440628:	b50000c0 	cbnz	x0, 440640 <fgetc+0x2d230>
  44062c:	52800000 	mov	w0, #0x0                   	// #0
  440630:	a94153f3 	ldp	x19, x20, [sp, #16]
  440634:	a9425bf5 	ldp	x21, x22, [sp, #32]
  440638:	a8c47bfd 	ldp	x29, x30, [sp], #64
  44063c:	d65f03c0 	ret
--
  4406c0:	f94002c1 	ldr	x1, [x22]
  4406c4:	52800000 	mov	w0, #0x0                   	// #0
  4406c8:	a94153f3 	ldp	x19, x20, [sp, #16]
  4406cc:	8b170037 	add	x23, x1, x23
  4406d0:	f90002d7 	str	x23, [x22]
  4406d4:	a9425bf5 	ldp	x21, x22, [sp, #32]
  4406d8:	f9401bf7 	ldr	x23, [sp, #48]
  4406dc:	a8c47bfd 	ldp	x29, x30, [sp], #64
  4406e0:	d65f03c0 	ret
--
  4407ac:	9ac420c6 	lsl	x6, x6, x4
  4407b0:	9ac424c6 	lsr	x6, x6, x4
  4407b4:	dac000c6 	rbit	x6, x6
  4407b8:	d1008063 	sub	x3, x3, #0x20
  4407bc:	f10000df 	cmp	x6, #0x0
  4407c0:	dac010c6 	clz	x6, x6
  4407c4:	8b460460 	add	x0, x3, x6, lsr #1
  4407c8:	9a8003e0 	csel	x0, xzr, x0, eq  // eq = none
  4407cc:	d65f03c0 	ret
  4407d0:	d2800000 	mov	x0, #0x0                   	// #0
  4407d4:	d65f03c0 	ret
--
  4408b4:	b400012e 	cbz	x14, 4408d8 <fgetc+0x2d4c8>
  4408b8:	d10020c0 	sub	x0, x6, #0x8
  4408bc:	dac00dcd 	rev	x13, x14
  4408c0:	f100013f 	cmp	x9, #0x0
  4408c4:	dac011a2 	clz	x2, x13
  4408c8:	8b420c00 	add	x0, x0, x2, lsr #3
  4408cc:	fa470008 	ccmp	x0, x7, #0x8, eq  // eq = none
  4408d0:	9a9f4000 	csel	x0, x0, xzr, mi  // mi = first
  4408d4:	d65f03c0 	ret
  4408d8:	d2800000 	mov	x0, #0x0                   	// #0
  4408dc:	d65f03c0 	ret
--
  440910:	91000c20 	add	x0, x1, #0x3
  440914:	91001021 	add	x1, x1, #0x4
  440918:	340000c2 	cbz	w2, 440930 <fgetc+0x2d520>
  44091c:	b8617862 	ldr	w2, [x3, x1, lsl #2]
  440920:	340000a2 	cbz	w2, 440934 <fgetc+0x2d524>
  440924:	b8617882 	ldr	w2, [x4, x1, lsl #2]
  440928:	91000420 	add	x0, x1, #0x1
  44092c:	35fffea2 	cbnz	w2, 440900 <fgetc+0x2d4f0>
  440930:	d65f03c0 	ret
  440934:	aa0103e0 	mov	x0, x1
  440938:	d65f03c0 	ret
  44093c:	d2800000 	mov	x0, #0x0                   	// #0
  440940:	d65f03c0 	ret
--
  44097c:	91004063 	add	x3, x3, #0x10
  440980:	f1000c5f 	cmp	x2, #0x3
  440984:	540000e9 	b.ls	4409a0 <fgetc+0x2d590>  // b.plast
  440988:	b9400060 	ldr	w0, [x3]
  44098c:	d1001042 	sub	x2, x2, #0x4
  440990:	6b01001f 	cmp	w0, w1
  440994:	54fffe21 	b.ne	440958 <fgetc+0x2d548>  // b.any
  440998:	aa0303e0 	mov	x0, x3
  44099c:	d65f03c0 	ret
--
  4409c0:	b9400463 	ldr	w3, [x3, #4]
  4409c4:	6b01007f 	cmp	w3, w1
  4409c8:	540001a0 	b.eq	4409fc <fgetc+0x2d5ec>  // b.none
  4409cc:	f100085f 	cmp	x2, #0x2
  4409d0:	540001a0 	b.eq	440a04 <fgetc+0x2d5f4>  // b.none
  4409d4:	b8408c02 	ldr	w2, [x0, #8]!
  4409d8:	6b01005f 	cmp	w2, w1
  4409dc:	9a9f0000 	csel	x0, x0, xzr, eq  // eq = none
  4409e0:	d65f03c0 	ret
  4409e4:	91001060 	add	x0, x3, #0x4
  4409e8:	d65f03c0 	ret
  4409ec:	91002060 	add	x0, x3, #0x8
  4409f0:	d65f03c0 	ret
  4409f4:	91003060 	add	x0, x3, #0xc
  4409f8:	d65f03c0 	ret
  4409fc:	91001000 	add	x0, x0, #0x4
  440a00:	d65f03c0 	ret
  440a04:	d2800000 	mov	x0, #0x0                   	// #0
  440a08:	d65f03c0 	ret
--
  440a58:	8b031003 	add	x3, x0, x3, lsl #4
  440a5c:	b40000e2 	cbz	x2, 440a78 <fgetc+0x2d668>
  440a60:	b9000061 	str	w1, [x3]
  440a64:	f100045f 	cmp	x2, #0x1
  440a68:	54000080 	b.eq	440a78 <fgetc+0x2d668>  // b.none
  440a6c:	b9000461 	str	w1, [x3, #4]
  440a70:	f1000c5f 	cmp	x2, #0x3
  440a74:	54000040 	b.eq	440a7c <fgetc+0x2d66c>  // b.none
  440a78:	d65f03c0 	ret
  440a7c:	b9000861 	str	w1, [x3, #8]
  440a80:	d65f03c0 	ret
--
  440b34:	f945c694 	ldr	x20, [x20, #2952]
  440b38:	f94047e1 	ldr	x1, [sp, #136]
  440b3c:	f9400282 	ldr	x2, [x20]
  440b40:	eb020021 	subs	x1, x1, x2
  440b44:	d2800002 	mov	x2, #0x0                   	// #0
  440b48:	540006c1 	b.ne	440c20 <fgetc+0x2d810>  // b.any
  440b4c:	a94153f3 	ldp	x19, x20, [sp, #16]
  440b50:	a8c97bfd 	ldp	x29, x30, [sp], #144
  440b54:	d65f03c0 	ret
--
  440c28:	b9400002 	ldr	w2, [x0]
  440c2c:	7100005f 	cmp	w2, #0x0
  440c30:	7a421024 	ccmp	w1, w2, #0x4, ne  // ne = any
  440c34:	540000a0 	b.eq	440c48 <fgetc+0x2d838>  // b.none
  440c38:	b8404c02 	ldr	w2, [x0, #4]!
  440c3c:	7100005f 	cmp	w2, #0x0
  440c40:	7a411044 	ccmp	w2, w1, #0x4, ne  // ne = any
  440c44:	54ffffa1 	b.ne	440c38 <fgetc+0x2d828>  // b.any
  440c48:	d65f03c0 	ret
--
  440c8c:	90000281 	adrp	x1, 490000 <fgetc+0x7cbf0>
  440c90:	f946e021 	ldr	x1, [x1, #3520]
  440c94:	d53bd043 	mrs	x3, tpidr_el0
  440c98:	4b0203e2 	neg	w2, w2
  440c9c:	12800000 	mov	w0, #0xffffffff            	// #-1
  440ca0:	b8216862 	str	w2, [x3, x1]
  440ca4:	a94153f3 	ldp	x19, x20, [sp, #16]
  440ca8:	a8c27bfd 	ldp	x29, x30, [sp], #32
  440cac:	d65f03c0 	ret
--
  440cb4:	aa1403e1 	mov	x1, x20
  440cb8:	d2800e28 	mov	x8, #0x71                  	// #113
  440cbc:	d4000001 	svc	#0x0
  440cc0:	aa0003e2 	mov	x2, x0
  440cc4:	b140041f 	cmn	x0, #0x1, lsl #12
  440cc8:	54fffe28 	b.hi	440c8c <fgetc+0x2d87c>  // b.pmore
  440ccc:	a94153f3 	ldp	x19, x20, [sp, #16]
  440cd0:	a8c27bfd 	ldp	x29, x30, [sp], #32
  440cd4:	d65f03c0 	ret
--
  440d30:	29007e75 	stp	w21, wzr, [x19]
  440d34:	a900fe74 	stp	x20, xzr, [x19, #8]
  440d38:	a901fe7f 	stp	xzr, xzr, [x19, #24]
  440d3c:	b9002a7f 	str	wzr, [x19, #40]
  440d40:	aa1303e0 	mov	x0, x19
  440d44:	a94153f3 	ldp	x19, x20, [sp, #16]
  440d48:	a9425bf5 	ldp	x21, x22, [sp, #32]
  440d4c:	a8c37bfd 	ldp	x29, x30, [sp], #48
  440d50:	d65f03c0 	ret
--
  440e14:	f945c694 	ldr	x20, [x20, #2952]
  440e18:	f9405fe1 	ldr	x1, [sp, #184]
  440e1c:	f9400282 	ldr	x2, [x20]
  440e20:	eb020021 	subs	x1, x1, x2
  440e24:	d2800002 	mov	x2, #0x0                   	// #0
  440e28:	54000201 	b.ne	440e68 <fgetc+0x2da58>  // b.any
  440e2c:	a94153f3 	ldp	x19, x20, [sp, #16]
  440e30:	a8cc7bfd 	ldp	x29, x30, [sp], #192
  440e34:	d65f03c0 	ret
--
  440e8c:	a8c17bfd 	ldp	x29, x30, [sp], #16
  440e90:	17ffffc6 	b	440da8 <fgetc+0x2d998>
  440e94:	90000281 	adrp	x1, 490000 <fgetc+0x7cbf0>
  440e98:	f946e021 	ldr	x1, [x1, #3520]
  440e9c:	d53bd042 	mrs	x2, tpidr_el0
  440ea0:	52800043 	mov	w3, #0x2                   	// #2
  440ea4:	d2800000 	mov	x0, #0x0                   	// #0
  440ea8:	b8216843 	str	w3, [x2, x1]
  440eac:	d65f03c0 	ret
--
  440ecc:	a8c17bfd 	ldp	x29, x30, [sp], #16
  440ed0:	17ffffb6 	b	440da8 <fgetc+0x2d998>
  440ed4:	90000281 	adrp	x1, 490000 <fgetc+0x7cbf0>
  440ed8:	f946e021 	ldr	x1, [x1, #3520]
  440edc:	d53bd042 	mrs	x2, tpidr_el0
  440ee0:	52800043 	mov	w3, #0x2                   	// #2
  440ee4:	d2800000 	mov	x0, #0x0                   	// #0
  440ee8:	b8216843 	str	w3, [x2, x1]
  440eec:	d65f03c0 	ret
--
  440f10:	a8c27bfd 	ldp	x29, x30, [sp], #32
  440f14:	17ff8ac5 	b	423a28 <fgetc+0x10618>
  440f18:	90000280 	adrp	x0, 490000 <fgetc+0x7cbf0>
  440f1c:	f946e000 	ldr	x0, [x0, #3520]
  440f20:	d53bd041 	mrs	x1, tpidr_el0
  440f24:	528002c2 	mov	w2, #0x16                  	// #22
  440f28:	b8206822 	str	w2, [x1, x0]
  440f2c:	12800000 	mov	w0, #0xffffffff            	// #-1
  440f30:	d65f03c0 	ret
--
  440f78:	f900127f 	str	xzr, [x19, #32]
  440f7c:	52800000 	mov	w0, #0x0                   	// #0
  440f80:	b9002a7f 	str	wzr, [x19, #40]
  440f84:	9400426b 	bl	451930 <fgetc+0x3e520>
  440f88:	7100041f 	cmp	w0, #0x1
  440f8c:	540000ec 	b.gt	440fa8 <fgetc+0x2db98>
  440f90:	a94153f3 	ldp	x19, x20, [sp, #16]
  440f94:	a8c27bfd 	ldp	x29, x30, [sp], #32
  440f98:	d65f03c0 	ret
--
  440fa8:	aa1403e0 	mov	x0, x20
  440fac:	d2801021 	mov	x1, #0x81                  	// #129
  440fb0:	d2800022 	mov	x2, #0x1                   	// #1
  440fb4:	d2800003 	mov	x3, #0x0                   	// #0
  440fb8:	d2800c48 	mov	x8, #0x62                  	// #98
  440fbc:	d4000001 	svc	#0x0
  440fc0:	a94153f3 	ldp	x19, x20, [sp, #16]
  440fc4:	a8c27bfd 	ldp	x29, x30, [sp], #32
  440fc8:	d65f03c0 	ret
--
  441098:	7100041f 	cmp	w0, #0x1
  44109c:	5400028c 	b.gt	4410ec <fgetc+0x2dcdc>
  4410a0:	aa1403e0 	mov	x0, x20
  4410a4:	a94153f3 	ldp	x19, x20, [sp, #16]
  4410a8:	a9425bf5 	ldp	x21, x22, [sp, #32]
  4410ac:	a94363f7 	ldp	x23, x24, [sp, #48]
  4410b0:	f94023f9 	ldr	x25, [sp, #64]
  4410b4:	a8c57bfd 	ldp	x29, x30, [sp], #80
  4410b8:	d65f03c0 	ret
--
  4410fc:	d2800c48 	mov	x8, #0x62                  	// #98
  441100:	d4000001 	svc	#0x0
  441104:	aa1403e0 	mov	x0, x20
  441108:	a94153f3 	ldp	x19, x20, [sp, #16]
  44110c:	a9425bf5 	ldp	x21, x22, [sp, #32]
  441110:	a94363f7 	ldp	x23, x24, [sp, #48]
  441114:	f94023f9 	ldr	x25, [sp, #64]
  441118:	a8c57bfd 	ldp	x29, x30, [sp], #80
  44111c:	d65f03c0 	ret
--
  4411b8:	f9405fe1 	ldr	x1, [sp, #184]
  4411bc:	f9400282 	ldr	x2, [x20]
  4411c0:	eb020021 	subs	x1, x1, x2
  4411c4:	d2800002 	mov	x2, #0x0                   	// #0
  4411c8:	540002a1 	b.ne	44121c <fgetc+0x2de0c>  // b.any
  4411cc:	a94153f3 	ldp	x19, x20, [sp, #16]
  4411d0:	f94013f5 	ldr	x21, [sp, #32]
  4411d4:	a8cc7bfd 	ldp	x29, x30, [sp], #192
  4411d8:	d65f03c0 	ret
--
  441210:	d2800000 	mov	x0, #0x0                   	// #0
  441214:	b8216843 	str	w3, [x2, x1]
  441218:	17ffffe7 	b	4411b4 <fgetc+0x2dda4>
  44121c:	97ff90f9 	bl	425600 <fgetc+0x121f0>
  441220:	d2801408 	mov	x8, #0xa0                  	// #160
  441224:	d4000001 	svc	#0x0
  441228:	b13ffc1f 	cmn	x0, #0xfff
  44122c:	54000042 	b.cs	441234 <fgetc+0x2de24>  // b.hs, b.nlast
  441230:	d65f03c0 	ret
  441234:	17ff9701 	b	426e38 <fgetc+0x13a28>
  441238:	d503201f 	nop
  44123c:	d503201f 	nop
  441240:	d28015c8 	mov	x8, #0xae                  	// #174
  441244:	d4000001 	svc	#0x0
  441248:	d65f03c0 	ret
  44124c:	d503201f 	nop
  441250:	d28015e8 	mov	x8, #0xaf                  	// #175
  441254:	d4000001 	svc	#0x0
  441258:	d65f03c0 	ret
  44125c:	d503201f 	nop
  441260:	d2801608 	mov	x8, #0xb0                  	// #176
  441264:	d4000001 	svc	#0x0
  441268:	d65f03c0 	ret
  44126c:	d503201f 	nop
  441270:	d2801628 	mov	x8, #0xb1                  	// #177
  441274:	d4000001 	svc	#0x0
  441278:	d65f03c0 	ret
  44127c:	d503201f 	nop
  441280:	350001e0 	cbnz	w0, 4412bc <fgetc+0x2deac>
  441284:	92800c60 	mov	x0, #0xffffffffffffff9c    	// #-100
  441288:	d2802003 	mov	x3, #0x100                 	// #256
  44128c:	d28009e8 	mov	x8, #0x4f                  	// #79
  441290:	d4000001 	svc	#0x0
  441294:	b140041f 	cmn	x0, #0x1, lsl #12
  441298:	54000048 	b.hi	4412a0 <fgetc+0x2de90>  // b.pmore
  44129c:	d65f03c0 	ret
  4412a0:	f0000261 	adrp	x1, 490000 <fgetc+0x7cbf0>
  4412a4:	f946e021 	ldr	x1, [x1, #3520]
  4412a8:	d53bd042 	mrs	x2, tpidr_el0
  4412ac:	4b0003e3 	neg	w3, w0
  4412b0:	12800000 	mov	w0, #0xffffffff            	// #-1
  4412b4:	b8216843 	str	w3, [x2, x1]
  4412b8:	d65f03c0 	ret
  4412bc:	f0000261 	adrp	x1, 490000 <fgetc+0x7cbf0>
  4412c0:	f946e021 	ldr	x1, [x1, #3520]
  4412c4:	d53bd042 	mrs	x2, tpidr_el0
  4412c8:	528002c3 	mov	w3, #0x16                  	// #22
  4412cc:	12800000 	mov	w0, #0xffffffff            	// #-1
  4412d0:	b8216843 	str	w3, [x2, x1]
  4412d4:	d65f03c0 	ret
--
  4412e0:	aa0303e2 	mov	x2, x3
  4412e4:	350001e0 	cbnz	w0, 441320 <fgetc+0x2df10>
  4412e8:	93407ca0 	sxtw	x0, w5
  4412ec:	93407c83 	sxtw	x3, w4
  4412f0:	d28009e8 	mov	x8, #0x4f                  	// #79
  4412f4:	d4000001 	svc	#0x0
  4412f8:	b140041f 	cmn	x0, #0x1, lsl #12
  4412fc:	54000048 	b.hi	441304 <fgetc+0x2def4>  // b.pmore
  441300:	d65f03c0 	ret
  441304:	f0000261 	adrp	x1, 490000 <fgetc+0x7cbf0>
  441308:	f946e021 	ldr	x1, [x1, #3520]
  44130c:	d53bd042 	mrs	x2, tpidr_el0
  441310:	4b0003e3 	neg	w3, w0
  441314:	12800000 	mov	w0, #0xffffffff            	// #-1
  441318:	b8216843 	str	w3, [x2, x1]
  44131c:	d65f03c0 	ret
  441320:	f0000261 	adrp	x1, 490000 <fgetc+0x7cbf0>
  441324:	f946e021 	ldr	x1, [x1, #3520]
  441328:	d53bd042 	mrs	x2, tpidr_el0
  44132c:	528002c3 	mov	w3, #0x16                  	// #22
  441330:	12800000 	mov	w0, #0xffffffff            	// #-1
  441334:	b8216843 	str	w3, [x2, x1]
  441338:	d65f03c0 	ret
--
  44136c:	1a9f17e0 	cset	w0, eq  // eq = none
  441370:	f94037e1 	ldr	x1, [sp, #104]
  441374:	f9400262 	ldr	x2, [x19]
  441378:	eb020021 	subs	x1, x1, x2
  44137c:	d2800002 	mov	x2, #0x0                   	// #0
  441380:	54000081 	b.ne	441390 <fgetc+0x2df80>  // b.any
  441384:	f9400bf3 	ldr	x19, [sp, #16]
  441388:	a8c77bfd 	ldp	x29, x30, [sp], #112
  44138c:	d65f03c0 	ret
--
  441418:	3900c07f 	strb	wzr, [x3, #48]
  44141c:	f945c484 	ldr	x4, [x4, #2952]
  441420:	f9401fe1 	ldr	x1, [sp, #56]
  441424:	f9400082 	ldr	x2, [x4]
  441428:	eb020021 	subs	x1, x1, x2
  44142c:	d2800002 	mov	x2, #0x0                   	// #0
  441430:	54000141 	b.ne	441458 <fgetc+0x2e048>  // b.any
  441434:	a8c47bfd 	ldp	x29, x30, [sp], #64
  441438:	d65f03c0 	ret
--
  441460:	aa0003e1 	mov	x1, x0
  441464:	d2801ac8 	mov	x8, #0xd6                  	// #214
  441468:	d4000001 	svc	#0x0
  44146c:	d0000282 	adrp	x2, 493000 <.got+0x24d0>
  441470:	eb01001f 	cmp	x0, x1
  441474:	f905f040 	str	x0, [x2, #3040]
  441478:	54000063 	b.cc	441484 <fgetc+0x2e074>  // b.lo, b.ul, b.last
  44147c:	52800000 	mov	w0, #0x0                   	// #0
  441480:	d65f03c0 	ret
  441484:	f0000261 	adrp	x1, 490000 <fgetc+0x7cbf0>
  441488:	f946e021 	ldr	x1, [x1, #3520]
  44148c:	d53bd042 	mrs	x2, tpidr_el0
  441490:	52800183 	mov	w3, #0xc                   	// #12
  441494:	12800000 	mov	w0, #0xffffffff            	// #-1
  441498:	b8216843 	str	w3, [x2, x1]
  44149c:	d65f03c0 	ret
--
  4414f0:	12001c00 	and	w0, w0, #0xff
  4414f4:	7100641f 	cmp	w0, #0x19
  4414f8:	540002c8 	b.hi	441550 <fgetc+0x2e140>  // b.pmore
  4414fc:	d2800013 	mov	x19, #0x0                   	// #0
  441500:	aa1303e0 	mov	x0, x19
  441504:	a94153f3 	ldp	x19, x20, [sp, #16]
  441508:	f94013f5 	ldr	x21, [sp, #32]
  44150c:	a8c37bfd 	ldp	x29, x30, [sp], #48
  441510:	d65f03c0 	ret
--
  44152c:	38736a80 	ldrb	w0, [x20, x19]
  441530:	91000a73 	add	x19, x19, #0x2
  441534:	f94013f5 	ldr	x21, [sp, #32]
  441538:	7101f41f 	cmp	w0, #0x7d
  44153c:	9a9f0273 	csel	x19, x19, xzr, eq  // eq = none
  441540:	aa1303e0 	mov	x0, x19
  441544:	a94153f3 	ldp	x19, x20, [sp, #16]
  441548:	a8c37bfd 	ldp	x29, x30, [sp], #48
  44154c:	d65f03c0 	ret
--
  441554:	71017c3f 	cmp	w1, #0x5f
  441558:	12001c00 	and	w0, w0, #0xff
  44155c:	7a491800 	ccmp	w0, #0x9, #0x0, ne  // ne = any
  441560:	9a9f8273 	csel	x19, x19, xzr, hi  // hi = pmore
  441564:	aa1303e0 	mov	x0, x19
  441568:	a94153f3 	ldp	x19, x20, [sp, #16]
  44156c:	f94013f5 	ldr	x21, [sp, #32]
  441570:	a8c37bfd 	ldp	x29, x30, [sp], #48
  441574:	d65f03c0 	ret
--
  441684:	f100129f 	cmp	x20, #0x4
  441688:	54ffff21 	b.ne	44166c <fgetc+0x2e25c>  // b.any
  44168c:	52800000 	mov	w0, #0x0                   	// #0
  441690:	910003bf 	mov	sp, x29
  441694:	a94153f3 	ldp	x19, x20, [sp, #16]
  441698:	a9425bf5 	ldp	x21, x22, [sp, #32]
  44169c:	a94363f7 	ldp	x23, x24, [sp, #48]
  4416a0:	a8c47bfd 	ldp	x29, x30, [sp], #64
  4416a4:	d65f03c0 	ret
  4416a8:	52800000 	mov	w0, #0x0                   	// #0
  4416ac:	d65f03c0 	ret
--
  4417e4:	b4000120 	cbz	x0, 441808 <fgetc+0x2e3f8>
  4417e8:	aa0003f3 	mov	x19, x0
  4417ec:	aa1403e0 	mov	x0, x20
  4417f0:	f9400261 	ldr	x1, [x19]
  4417f4:	97ff74d3 	bl	41eb40 <fgetc+0xb730>
  4417f8:	35ffff40 	cbnz	w0, 4417e0 <fgetc+0x2e3d0>
  4417fc:	a94153f3 	ldp	x19, x20, [sp, #16]
  441800:	a8c37bfd 	ldp	x29, x30, [sp], #48
  441804:	d65f03c0 	ret
--
  441830:	910062a0 	add	x0, x21, #0x18
  441834:	97fefa9f 	bl	4002b0 <.plt+0x10>
  441838:	a9007ea0 	stp	x0, xzr, [x21]
  44183c:	b90012bf 	str	wzr, [x21, #16]
  441840:	f9000675 	str	x21, [x19, #8]
  441844:	a94153f3 	ldp	x19, x20, [sp, #16]
  441848:	a9425bf5 	ldp	x21, x22, [sp, #32]
  44184c:	a8c37bfd 	ldp	x29, x30, [sp], #48
  441850:	d65f03c0 	ret
--
  441954:	f9000a61 	str	x1, [x19, #16]
  441958:	3900001f 	strb	wzr, [x0]
  44195c:	b9001a9f 	str	wzr, [x20, #24]
  441960:	f94002a1 	ldr	x1, [x21]
  441964:	b5fffcc1 	cbnz	x1, 4418fc <fgetc+0x2e4ec>
  441968:	a94153f3 	ldp	x19, x20, [sp, #16]
  44196c:	a9425bf5 	ldp	x21, x22, [sp, #32]
  441970:	a8c37bfd 	ldp	x29, x30, [sp], #48
  441974:	d65f03c0 	ret
  441978:	f9400c21 	ldr	x1, [x1, #24]
  44197c:	97ff79a9 	bl	420020 <fgetc+0xcc10>
  441980:	17fffff4 	b	441950 <fgetc+0x2e540>
  441984:	d65f03c0 	ret
--
  441ab4:	910003bf 	mov	sp, x29
  441ab8:	2a1c03e0 	mov	w0, w28
  441abc:	a94153f3 	ldp	x19, x20, [sp, #16]
  441ac0:	a9425bf5 	ldp	x21, x22, [sp, #32]
  441ac4:	a94363f7 	ldp	x23, x24, [sp, #48]
  441ac8:	a9446bf9 	ldp	x25, x26, [sp, #64]
  441acc:	a94573fb 	ldp	x27, x28, [sp, #80]
  441ad0:	a8c87bfd 	ldp	x29, x30, [sp], #128
  441ad4:	d65f03c0 	ret
--
  4421c8:	910003bf 	mov	sp, x29
  4421cc:	2a0303e0 	mov	w0, w3
  4421d0:	a94153f3 	ldp	x19, x20, [sp, #16]
  4421d4:	a9425bf5 	ldp	x21, x22, [sp, #32]
  4421d8:	a94363f7 	ldp	x23, x24, [sp, #48]
  4421dc:	a9446bf9 	ldp	x25, x26, [sp, #64]
  4421e0:	a94573fb 	ldp	x27, x28, [sp, #80]
  4421e4:	a8d77bfd 	ldp	x29, x30, [sp], #368
  4421e8:	d65f03c0 	ret
--
  442b90:	910003bf 	mov	sp, x29
  442b94:	aa1b03e0 	mov	x0, x27
  442b98:	a94153f3 	ldp	x19, x20, [sp, #16]
  442b9c:	a9425bf5 	ldp	x21, x22, [sp, #32]
  442ba0:	a94363f7 	ldp	x23, x24, [sp, #48]
  442ba4:	a9446bf9 	ldp	x25, x26, [sp, #64]
  442ba8:	a94573fb 	ldp	x27, x28, [sp, #80]
  442bac:	a8d67bfd 	ldp	x29, x30, [sp], #352
  442bb0:	d65f03c0 	ret
--
  4434a8:	910003fd 	mov	x29, sp
  4434ac:	a90153f3 	stp	x19, x20, [sp, #16]
  4434b0:	d2800014 	mov	x20, #0x0                   	// #0
  4434b4:	97ff6d67 	bl	41ea50 <fgetc+0xb640>
  4434b8:	b50000a0 	cbnz	x0, 4434cc <fgetc+0x300bc>
  4434bc:	aa1403e0 	mov	x0, x20
  4434c0:	a94153f3 	ldp	x19, x20, [sp, #16]
  4434c4:	a8c47bfd 	ldp	x29, x30, [sp], #64
  4434c8:	d65f03c0 	ret
--
  44353c:	52800481 	mov	w1, #0x24                  	// #36
  443540:	97ff6d44 	bl	41ea50 <fgetc+0xb640>
  443544:	b5fffd60 	cbnz	x0, 4434f0 <fgetc+0x300e0>
  443548:	aa1403e0 	mov	x0, x20
  44354c:	a94153f3 	ldp	x19, x20, [sp, #16]
  443550:	a9425bf5 	ldp	x21, x22, [sp, #32]
  443554:	f9401bf7 	ldr	x23, [sp, #48]
  443558:	a8c47bfd 	ldp	x29, x30, [sp], #64
  44355c:	d65f03c0 	ret
--
  44362c:	3900029f 	strb	wzr, [x20]
  443630:	aa1503e0 	mov	x0, x21
  443634:	a94153f3 	ldp	x19, x20, [sp, #16]
  443638:	a9425bf5 	ldp	x21, x22, [sp, #32]
  44363c:	a94363f7 	ldp	x23, x24, [sp, #48]
  443640:	a9446bf9 	ldp	x25, x26, [sp, #64]
  443644:	a94573fb 	ldp	x27, x28, [sp, #80]
  443648:	a8c77bfd 	ldp	x29, x30, [sp], #112
  44364c:	d65f03c0 	ret
--
  4437b4:	d1000401 	sub	x1, x0, #0x1
  4437b8:	b1000c3f 	cmn	x1, #0x3
  4437bc:	54fffc89 	b.ls	44374c <fgetc+0x3033c>  // b.plast
  4437c0:	d2800000 	mov	x0, #0x0                   	// #0
  4437c4:	17ffffe3 	b	443750 <fgetc+0x30340>
  4437c8:	a94153f3 	ldp	x19, x20, [sp, #16]
  4437cc:	a9425bf5 	ldp	x21, x22, [sp, #32]
  4437d0:	a8c37bfd 	ldp	x29, x30, [sp], #48
  4437d4:	d65f03c0 	ret
--
  443934:	f8337a9f 	str	xzr, [x20, x19, lsl #3]
  443938:	aa1403e0 	mov	x0, x20
  44393c:	a94153f3 	ldp	x19, x20, [sp, #16]
  443940:	a9425bf5 	ldp	x21, x22, [sp, #32]
  443944:	a94363f7 	ldp	x23, x24, [sp, #48]
  443948:	a9446bf9 	ldp	x25, x26, [sp, #64]
  44394c:	a94573fb 	ldp	x27, x28, [sp, #80]
  443950:	a8cb7bfd 	ldp	x29, x30, [sp], #176
  443954:	d65f03c0 	ret
--
  443afc:	38676901 	ldrb	w1, [x8, x7]
  443b00:	35000101 	cbnz	w1, 443b20 <fgetc+0x30710>
  443b04:	92800001 	mov	x1, #0xffffffffffffffff    	// #-1
  443b08:	52800000 	mov	w0, #0x0                   	// #0
  443b0c:	a94363f7 	ldp	x23, x24, [sp, #48]
  443b10:	f9000281 	str	x1, [x20]
  443b14:	a94153f3 	ldp	x19, x20, [sp, #16]
  443b18:	a8c47bfd 	ldp	x29, x30, [sp], #64
  443b1c:	d65f03c0 	ret
--
  443b94:	52800021 	mov	w1, #0x1                   	// #1
  443b98:	2a0103e0 	mov	w0, w1
  443b9c:	a94363f7 	ldp	x23, x24, [sp, #48]
  443ba0:	f9000296 	str	x22, [x20]
  443ba4:	b9000a81 	str	w1, [x20, #8]
  443ba8:	a94153f3 	ldp	x19, x20, [sp, #16]
  443bac:	a9425bf5 	ldp	x21, x22, [sp, #32]
  443bb0:	a8c47bfd 	ldp	x29, x30, [sp], #64
  443bb4:	d65f03c0 	ret
  443bb8:	92800001 	mov	x1, #0xffffffffffffffff    	// #-1
  443bbc:	f9000281 	str	x1, [x20]
  443bc0:	52800000 	mov	w0, #0x0                   	// #0
  443bc4:	a94153f3 	ldp	x19, x20, [sp, #16]
  443bc8:	a8c47bfd 	ldp	x29, x30, [sp], #64
  443bcc:	d65f03c0 	ret
--
  443df4:	912bc2b5 	add	x21, x21, #0xaf0
  443df8:	92800000 	mov	x0, #0xffffffffffffffff    	// #-1
  443dfc:	f9000ea0 	str	x0, [x21, #24]
  443e00:	910003bf 	mov	sp, x29
  443e04:	a94153f3 	ldp	x19, x20, [sp, #16]
  443e08:	a9425bf5 	ldp	x21, x22, [sp, #32]
  443e0c:	a94363f7 	ldp	x23, x24, [sp, #48]
  443e10:	a8c47bfd 	ldp	x29, x30, [sp], #64
  443e14:	d65f03c0 	ret
--
  443ee8:	b4000161 	cbz	x1, 443f14 <fgetc+0x30b04>
  443eec:	912bc2b5 	add	x21, x21, #0xaf0
  443ef0:	b90022bf 	str	wzr, [x21, #32]
  443ef4:	910003bf 	mov	sp, x29
  443ef8:	a94153f3 	ldp	x19, x20, [sp, #16]
  443efc:	a9425bf5 	ldp	x21, x22, [sp, #32]
  443f00:	a94363f7 	ldp	x23, x24, [sp, #48]
  443f04:	a8c47bfd 	ldp	x29, x30, [sp], #64
  443f08:	d65f03c0 	ret
--
  444054:	aa1b03e0 	mov	x0, x27
  444058:	a9417bfd 	ldp	x29, x30, [sp, #16]
  44405c:	a94253f3 	ldp	x19, x20, [sp, #32]
  444060:	a9435bf5 	ldp	x21, x22, [sp, #48]
  444064:	a94463f7 	ldp	x23, x24, [sp, #64]
  444068:	a9456bf9 	ldp	x25, x26, [sp, #80]
  44406c:	a94673fb 	ldp	x27, x28, [sp, #96]
  444070:	911043ff 	add	sp, sp, #0x410
  444074:	d65f03c0 	ret
--
  4447e8:	f9400281 	ldr	x1, [x20]
  4447ec:	91000400 	add	x0, x0, #0x1
  4447f0:	8b001020 	add	x0, x1, x0, lsl #4
  4447f4:	f9000280 	str	x0, [x20]
  4447f8:	a94153f3 	ldp	x19, x20, [sp, #16]
  4447fc:	a9425bf5 	ldp	x21, x22, [sp, #32]
  444800:	a94363f7 	ldp	x23, x24, [sp, #48]
  444804:	a8c67bfd 	ldp	x29, x30, [sp], #96
  444808:	d65f03c0 	ret
--
  4449f4:	2a0002b5 	orr	w21, w21, w0
  4449f8:	350003f5 	cbnz	w21, 444a74 <fgetc+0x31664>
  4449fc:	377803d6 	tbnz	w22, #15, 444a74 <fgetc+0x31664>
  444a00:	aa1303e0 	mov	x0, x19
  444a04:	a94153f3 	ldp	x19, x20, [sp, #16]
  444a08:	a9425bf5 	ldp	x21, x22, [sp, #32]
  444a0c:	f9401bf7 	ldr	x23, [sp, #48]
  444a10:	a8c47bfd 	ldp	x29, x30, [sp], #64
  444a14:	d65f03c0 	ret
--
  444a68:	529ffe23 	mov	w3, #0xfff1                	// #65521
  444a6c:	7a4310a4 	ccmp	w5, w3, #0x4, ne  // ne = any
  444a70:	54fff860 	b.eq	44497c <fgetc+0x3156c>  // b.none
  444a74:	d2800000 	mov	x0, #0x0                   	// #0
  444a78:	a94153f3 	ldp	x19, x20, [sp, #16]
  444a7c:	a9425bf5 	ldp	x21, x22, [sp, #32]
  444a80:	f9401bf7 	ldr	x23, [sp, #48]
  444a84:	a8c47bfd 	ldp	x29, x30, [sp], #64
  444a88:	d65f03c0 	ret
--
  444d6c:	52800020 	mov	w0, #0x1                   	// #1
  444d70:	a9427bfd 	ldp	x29, x30, [sp, #32]
  444d74:	a94353f3 	ldp	x19, x20, [sp, #48]
  444d78:	a9445bf5 	ldp	x21, x22, [sp, #64]
  444d7c:	a94563f7 	ldp	x23, x24, [sp, #80]
  444d80:	a9466bf9 	ldp	x25, x26, [sp, #96]
  444d84:	a94773fb 	ldp	x27, x28, [sp, #112]
  444d88:	910403ff 	add	sp, sp, #0x100
  444d8c:	d65f03c0 	ret
--
  444e60:	52800000 	mov	w0, #0x0                   	// #0
  444e64:	a9427bfd 	ldp	x29, x30, [sp, #32]
  444e68:	a94353f3 	ldp	x19, x20, [sp, #48]
  444e6c:	a9445bf5 	ldp	x21, x22, [sp, #64]
  444e70:	a94563f7 	ldp	x23, x24, [sp, #80]
  444e74:	a9466bf9 	ldp	x25, x26, [sp, #96]
  444e78:	a94773fb 	ldp	x27, x28, [sp, #112]
  444e7c:	910403ff 	add	sp, sp, #0x100
  444e80:	d65f03c0 	ret
--
  445708:	aa1c03e0 	mov	x0, x28
  44570c:	a9427bfd 	ldp	x29, x30, [sp, #32]
  445710:	a94353f3 	ldp	x19, x20, [sp, #48]
  445714:	a9445bf5 	ldp	x21, x22, [sp, #64]
  445718:	a94563f7 	ldp	x23, x24, [sp, #80]
  44571c:	a9466bf9 	ldp	x25, x26, [sp, #96]
  445720:	a94773fb 	ldp	x27, x28, [sp, #112]
  445724:	910383ff 	add	sp, sp, #0xe0
  445728:	d65f03c0 	ret
--
  445f4c:	d37d7821 	ubfiz	x1, x1, #3, #31
  445f50:	b9400c63 	ldr	w3, [x3, #12]
  445f54:	8b010081 	add	x1, x4, x1
  445f58:	b9032c03 	str	w3, [x0, #812]
  445f5c:	8b020822 	add	x2, x1, x2, lsl #2
  445f60:	f9019804 	str	x4, [x0, #816]
  445f64:	f9019c01 	str	x1, [x0, #824]
  445f68:	f901a002 	str	x2, [x0, #832]
  445f6c:	d65f03c0 	ret
  445f70:	f9403001 	ldr	x1, [x0, #96]
  445f74:	b40000e1 	cbz	x1, 445f90 <fgetc+0x32b80>
  445f78:	f9400422 	ldr	x2, [x1, #8]
  445f7c:	b8408441 	ldr	w1, [x2], #8
  445f80:	b9032401 	str	w1, [x0, #804]
  445f84:	f901a002 	str	x2, [x0, #832]
  445f88:	8b214841 	add	x1, x2, w1, uxtw #2
  445f8c:	f9019c01 	str	x1, [x0, #824]
  445f90:	d65f03c0 	ret
--
  446064:	b40000c2 	cbz	x2, 44607c <fgetc+0x32c6c>
  446068:	d0000240 	adrp	x0, 490000 <fgetc+0x7cbf0>
  44606c:	a94153f3 	ldp	x19, x20, [sp, #16]
  446070:	a8c27bfd 	ldp	x29, x30, [sp], #32
  446074:	f947b000 	ldr	x0, [x0, #3936]
  446078:	d503201f 	nop
  44607c:	a94153f3 	ldp	x19, x20, [sp, #16]
  446080:	a8c27bfd 	ldp	x29, x30, [sp], #32
  446084:	d65f03c0 	ret
--
  446268:	9a821000 	csel	x0, x0, x2, ne  // ne = any
  44626c:	3900001f 	strb	wzr, [x0]
  446270:	aa1403e0 	mov	x0, x20
  446274:	a94153f3 	ldp	x19, x20, [sp, #16]
  446278:	a9425bf5 	ldp	x21, x22, [sp, #32]
  44627c:	a94363f7 	ldp	x23, x24, [sp, #48]
  446280:	a9446bf9 	ldp	x25, x26, [sp, #64]
  446284:	a8c57bfd 	ldp	x29, x30, [sp], #80
  446288:	d65f03c0 	ret
--
  446394:	a9bf7bfd 	stp	x29, x30, [sp, #-16]!
  446398:	d0000241 	adrp	x1, 490000 <fgetc+0x7cbf0>
  44639c:	910003fd 	mov	x29, sp
  4463a0:	f9475c21 	ldr	x1, [x1, #3768]
  4463a4:	f9400021 	ldr	x1, [x1]
  4463a8:	d63f0020 	blr	x1
  4463ac:	52800000 	mov	w0, #0x0                   	// #0
  4463b0:	a8c17bfd 	ldp	x29, x30, [sp], #16
  4463b4:	d65f03c0 	ret
  4463b8:	394d3402 	ldrb	w2, [x0, #845]
  4463bc:	52800000 	mov	w0, #0x0                   	// #0
  4463c0:	321e0042 	orr	w2, w2, #0x4
  4463c4:	390d3422 	strb	w2, [x1, #845]
  4463c8:	d65f03c0 	ret
  4463cc:	12800000 	mov	w0, #0xffffffff            	// #-1
  4463d0:	d65f03c0 	ret
--
  4463e4:	f9000bf3 	str	x19, [sp, #16]
  4463e8:	aa0003f3 	mov	x19, x0
  4463ec:	b100043f 	cmn	x1, #0x1
  4463f0:	540000c0 	b.eq	446408 <fgetc+0x32ff8>  // b.none
  4463f4:	97ffffc7 	bl	446310 <fgetc+0x32f00>
  4463f8:	35000080 	cbnz	w0, 446408 <fgetc+0x32ff8>
  4463fc:	f9400bf3 	ldr	x19, [sp, #16]
  446400:	a8c27bfd 	ldp	x29, x30, [sp], #32
  446404:	d65f03c0 	ret
--
  446494:	8b000042 	add	x2, x2, x0
  446498:	8a010040 	and	x0, x2, x1
  44649c:	8b030042 	add	x2, x2, x3
  4464a0:	8a010041 	and	x1, x2, x1
  4464a4:	eb01001f 	cmp	x0, x1
  4464a8:	54000081 	b.ne	4464b8 <fgetc+0x330a8>  // b.any
  4464ac:	f9400bf3 	ldr	x19, [sp, #16]
  4464b0:	a8c27bfd 	ldp	x29, x30, [sp], #32
  4464b4:	d65f03c0 	ret
--
  446770:	b5004bc0 	cbnz	x0, 4470e8 <fgetc+0x33cd8>
  446774:	910003bf 	mov	sp, x29
  446778:	a94153f3 	ldp	x19, x20, [sp, #16]
  44677c:	a9425bf5 	ldp	x21, x22, [sp, #32]
  446780:	a94363f7 	ldp	x23, x24, [sp, #48]
  446784:	a9446bf9 	ldp	x25, x26, [sp, #64]
  446788:	a94573fb 	ldp	x27, x28, [sp, #80]
  44678c:	a8d37bfd 	ldp	x29, x30, [sp], #304
  446790:	d65f03c0 	ret
--
  4470ec:	97fffcdf 	bl	446468 <fgetc+0x33058>
  4470f0:	910003bf 	mov	sp, x29
  4470f4:	a94153f3 	ldp	x19, x20, [sp, #16]
  4470f8:	a9425bf5 	ldp	x21, x22, [sp, #32]
  4470fc:	a94363f7 	ldp	x23, x24, [sp, #48]
  447100:	a9446bf9 	ldp	x25, x26, [sp, #64]
  447104:	a94573fb 	ldp	x27, x28, [sp, #80]
  447108:	a8d37bfd 	ldp	x29, x30, [sp], #304
  44710c:	d65f03c0 	ret
--
  447f80:	910003bf 	mov	sp, x29
  447f84:	aa1903e0 	mov	x0, x25
  447f88:	a94153f3 	ldp	x19, x20, [sp, #16]
  447f8c:	a9425bf5 	ldp	x21, x22, [sp, #32]
  447f90:	a94363f7 	ldp	x23, x24, [sp, #48]
  447f94:	a9446bf9 	ldp	x25, x26, [sp, #64]
  447f98:	a94573fb 	ldp	x27, x28, [sp, #80]
  447f9c:	a8cc7bfd 	ldp	x29, x30, [sp], #192
  447fa0:	d65f03c0 	ret
--
  4481bc:	d10043bf 	sub	sp, x29, #0x10
  4481c0:	a9417bfd 	ldp	x29, x30, [sp, #16]
  4481c4:	a94253f3 	ldp	x19, x20, [sp, #32]
  4481c8:	a9435bf5 	ldp	x21, x22, [sp, #48]
  4481cc:	a94463f7 	ldp	x23, x24, [sp, #64]
  4481d0:	a9456bf9 	ldp	x25, x26, [sp, #80]
  4481d4:	a94673fb 	ldp	x27, x28, [sp, #96]
  4481d8:	9112c3ff 	add	sp, sp, #0x4b0
  4481dc:	d65f03c0 	ret
--
  448678:	2a0203f5 	mov	w21, w2
  44867c:	97ff6d43 	bl	423b88 <fgetc+0x10778>
  448680:	36f800e0 	tbz	w0, #31, 44869c <fgetc+0x3528c>
  448684:	92800014 	mov	x20, #0xffffffffffffffff    	// #-1
  448688:	aa1403e0 	mov	x0, x20
  44868c:	a94153f3 	ldp	x19, x20, [sp, #16]
  448690:	f94013f5 	ldr	x21, [sp, #32]
  448694:	a8cb7bfd 	ldp	x29, x30, [sp], #176
  448698:	d65f03c0 	ret
--
  4486bc:	b5000121 	cbnz	x1, 4486e0 <fgetc+0x352d0>
  4486c0:	92800014 	mov	x20, #0xffffffffffffffff    	// #-1
  4486c4:	2a1303e0 	mov	w0, w19
  4486c8:	97ff6cd8 	bl	423a28 <fgetc+0x10618>
  4486cc:	aa1403e0 	mov	x0, x20
  4486d0:	a94153f3 	ldp	x19, x20, [sp, #16]
  4486d4:	f94013f5 	ldr	x21, [sp, #32]
  4486d8:	a8cb7bfd 	ldp	x29, x30, [sp], #176
  4486dc:	d65f03c0 	ret
--
  448768:	aa0a03e2 	mov	x2, x10
  44876c:	52800021 	mov	w1, #0x1                   	// #1
  448770:	a90e93e3 	stp	x3, x4, [sp, #232]
  448774:	910043e3 	add	x3, sp, #0x10
  448778:	a90f9be5 	stp	x5, x6, [sp, #248]
  44877c:	f90087e7 	str	x7, [sp, #264]
  448780:	97fffe52 	bl	4480c8 <fgetc+0x34cb8>
  448784:	a8d17bfd 	ldp	x29, x30, [sp], #272
  448788:	d65f03c0 	ret
--
  4487f8:	aa0a03e2 	mov	x2, x10
  4487fc:	12800001 	mov	w1, #0xffffffff            	// #-1
  448800:	a90e93e3 	stp	x3, x4, [sp, #232]
  448804:	910043e3 	add	x3, sp, #0x10
  448808:	a90f9be5 	stp	x5, x6, [sp, #248]
  44880c:	f90087e7 	str	x7, [sp, #264]
  448810:	97fffe2e 	bl	4480c8 <fgetc+0x34cb8>
  448814:	a8d17bfd 	ldp	x29, x30, [sp], #272
  448818:	d65f03c0 	ret
--
  448878:	3d8033e7 	str	q7, [sp, #192]
  44887c:	a90d0fe2 	stp	x2, x3, [sp, #208]
  448880:	910043e3 	add	x3, sp, #0x10
  448884:	aa0a03e2 	mov	x2, x10
  448888:	a90e17e4 	stp	x4, x5, [sp, #224]
  44888c:	a90f1fe6 	stp	x6, x7, [sp, #240]
  448890:	97fffe0e 	bl	4480c8 <fgetc+0x34cb8>
  448894:	a8d07bfd 	ldp	x29, x30, [sp], #256
  448898:	d65f03c0 	ret
--
  4488d0:	b4000133 	cbz	x19, 4488f4 <fgetc+0x354e4>
  4488d4:	f9400261 	ldr	x1, [x19]
  4488d8:	aa1403e0 	mov	x0, x20
  4488dc:	97ff5899 	bl	41eb40 <fgetc+0xb730>
  4488e0:	35ffff60 	cbnz	w0, 4488cc <fgetc+0x354bc>
  4488e4:	52800020 	mov	w0, #0x1                   	// #1
  4488e8:	a94153f3 	ldp	x19, x20, [sp, #16]
  4488ec:	a8c27bfd 	ldp	x29, x30, [sp], #32
  4488f0:	d65f03c0 	ret
  4488f4:	52800000 	mov	w0, #0x0                   	// #0
  4488f8:	a94153f3 	ldp	x19, x20, [sp, #16]
  4488fc:	a8c27bfd 	ldp	x29, x30, [sp], #32
  448900:	d65f03c0 	ret
--
  448924:	8b010844 	add	x4, x2, x1, lsl #2
  448928:	b8617841 	ldr	w1, [x2, x1, lsl #2]
  44892c:	eb00003f 	cmp	x1, x0
  448930:	540000c3 	b.cc	448948 <fgetc+0x35538>  // b.lo, b.ul, b.last
  448934:	aa0403e3 	mov	x3, x4
  448938:	eb020061 	subs	x1, x3, x2
  44893c:	54fffee1 	b.ne	448918 <fgetc+0x35508>  // b.any
  448940:	b9400060 	ldr	w0, [x3]
  448944:	d65f03c0 	ret
--
  448a1c:	93407c82 	sxtw	x2, w4
  448a20:	aa2203e3 	mvn	x3, x2
  448a24:	9ac70863 	udiv	x3, x3, x7
  448a28:	eb00007f 	cmp	x3, x0
  448a2c:	54fffdc8 	b.hi	4489e4 <fgetc+0x355d4>  // b.pmore
  448a30:	92800000 	mov	x0, #0xffffffffffffffff    	// #-1
  448a34:	b4000041 	cbz	x1, 448a3c <fgetc+0x3562c>
  448a38:	f9000025 	str	x5, [x1]
  448a3c:	d65f03c0 	ret
  448a40:	710014df 	cmp	w6, #0x5
  448a44:	54fffc69 	b.ls	4489d0 <fgetc+0x355c0>  // b.plast
  448a48:	b4000041 	cbz	x1, 448a50 <fgetc+0x35640>
  448a4c:	f9000025 	str	x5, [x1]
  448a50:	7100015f 	cmp	w10, #0x0
  448a54:	da801400 	cneg	x0, x0, eq  // eq = none
  448a58:	d65f03c0 	ret
--
  448f18:	d10043bf 	sub	sp, x29, #0x10
  448f1c:	a9417bfd 	ldp	x29, x30, [sp, #16]
  448f20:	a94253f3 	ldp	x19, x20, [sp, #32]
  448f24:	a9435bf5 	ldp	x21, x22, [sp, #48]
  448f28:	a94463f7 	ldp	x23, x24, [sp, #64]
  448f2c:	a9456bf9 	ldp	x25, x26, [sp, #80]
  448f30:	a94673fb 	ldp	x27, x28, [sp, #96]
  448f34:	910c03ff 	add	sp, sp, #0x300
  448f38:	d65f03c0 	ret
--
  449594:	b940abe1 	ldr	w1, [sp, #168]
  449598:	6b00003f 	cmp	w1, w0
  44959c:	54fffda1 	b.ne	449550 <fgetc+0x36140>  // b.any
  4495a0:	a94153f3 	ldp	x19, x20, [sp, #16]
  4495a4:	a9425bf5 	ldp	x21, x22, [sp, #32]
  4495a8:	b940a3e0 	ldr	w0, [sp, #160]
  4495ac:	a94363f7 	ldp	x23, x24, [sp, #48]
  4495b0:	a8cb7bfd 	ldp	x29, x30, [sp], #176
  4495b4:	d65f03c0 	ret
  4495b8:	a9425bf5 	ldp	x21, x22, [sp, #32]
  4495bc:	a94363f7 	ldp	x23, x24, [sp, #48]
  4495c0:	a8cb7bfd 	ldp	x29, x30, [sp], #176
  4495c4:	d65f03c0 	ret
--
  449638:	97ff5160 	bl	41dbb8 <fgetc+0xa7a8>
  44963c:	b40000a0 	cbz	x0, 449650 <fgetc+0x36240>
  449640:	aa0003e1 	mov	x1, x0
  449644:	aa1303e0 	mov	x0, x19
  449648:	f8010434 	str	x20, [x1], #16
  44964c:	f9000261 	str	x1, [x19]
  449650:	a94153f3 	ldp	x19, x20, [sp, #16]
  449654:	a8c27bfd 	ldp	x29, x30, [sp], #32
  449658:	d65f03c0 	ret
--
  449688:	f946f0e0 	ldr	x0, [x7, #3552]
  44968c:	f9466c22 	ldr	x2, [x1, #3288]
  449690:	39400000 	ldrb	w0, [x0]
  449694:	f9400046 	ldr	x6, [x2]
  449698:	350000a0 	cbnz	w0, 4496ac <fgetc+0x3629c>
  44969c:	f9466c21 	ldr	x1, [x1, #3288]
  4496a0:	910004c0 	add	x0, x6, #0x1
  4496a4:	f9000020 	str	x0, [x1]
  4496a8:	d65f03c0 	ret
--
  44972c:	f9400463 	ldr	x3, [x3, #8]
  449730:	8b050084 	add	x4, x4, x5
  449734:	b4000063 	cbz	x3, 449740 <fgetc+0x36330>
  449738:	f9400065 	ldr	x5, [x3]
  44973c:	17ffffeb 	b	4496e8 <fgetc+0x362d8>
  449740:	eb06001f 	cmp	x0, x6
  449744:	54000068 	b.hi	449750 <fgetc+0x36340>  // b.pmore
  449748:	a8c17bfd 	ldp	x29, x30, [sp], #16
  44974c:	d65f03c0 	ret
--
  44978c:	97fee195 	bl	401de0 <main212+0xfec>
  449790:	f0000220 	adrp	x0, 490000 <fgetc+0x7cbf0>
  449794:	f946f000 	ldr	x0, [x0, #3552]
  449798:	39400000 	ldrb	w0, [x0]
  44979c:	350000a0 	cbnz	w0, 4497b0 <fgetc+0x363a0>
  4497a0:	f0000220 	adrp	x0, 490000 <fgetc+0x7cbf0>
  4497a4:	f9466c00 	ldr	x0, [x0, #3288]
  4497a8:	f9400000 	ldr	x0, [x0]
  4497ac:	d65f03c0 	ret
--
  4497dc:	91000421 	add	x1, x1, #0x1
  4497e0:	f8626862 	ldr	x2, [x3, x2]
  4497e4:	f100005f 	cmp	x2, #0x0
  4497e8:	9a800400 	cinc	x0, x0, ne  // ne = any
  4497ec:	eb04003f 	cmp	x1, x4
  4497f0:	54ffff41 	b.ne	4497d8 <fgetc+0x363c8>  // b.any
  4497f4:	f94004a5 	ldr	x5, [x5, #8]
  4497f8:	b5fffe85 	cbnz	x5, 4497c8 <fgetc+0x363b8>
  4497fc:	d65f03c0 	ret
  449800:	f0000223 	adrp	x3, 490000 <fgetc+0x7cbf0>
  449804:	f0000222 	adrp	x2, 490000 <fgetc+0x7cbf0>
  449808:	f946a063 	ldr	x3, [x3, #3392]
  44980c:	f9466442 	ldr	x2, [x2, #3272]
  449810:	f9400063 	ldr	x3, [x3]
  449814:	f9000003 	str	x3, [x0]
  449818:	f9400040 	ldr	x0, [x2]
  44981c:	f9000020 	str	x0, [x1]
  449820:	d65f03c0 	ret
--
  44988c:	f93c7c34 	str	x20, [x1, #30968]
  449890:	97ffff60 	bl	449610 <fgetc+0x36200>
  449894:	aa0003f3 	mov	x19, x0
  449898:	b40000c0 	cbz	x0, 4498b0 <fgetc+0x364a0>
  44989c:	aa1303e0 	mov	x0, x19
  4498a0:	a94153f3 	ldp	x19, x20, [sp, #16]
  4498a4:	f94013f5 	ldr	x21, [sp, #32]
  4498a8:	a8c37bfd 	ldp	x29, x30, [sp], #48
  4498ac:	d65f03c0 	ret
  4498b0:	aa1403e0 	mov	x0, x20
  4498b4:	97ff4f17 	bl	41d510 <fgetc+0xa100>
  4498b8:	aa1303e0 	mov	x0, x19
  4498bc:	a94153f3 	ldp	x19, x20, [sp, #16]
  4498c0:	f94013f5 	ldr	x21, [sp, #32]
  4498c4:	a8c37bfd 	ldp	x29, x30, [sp], #48
  4498c8:	d65f03c0 	ret
  4498cc:	d2800013 	mov	x19, #0x0                   	// #0
  4498d0:	aa1303e0 	mov	x0, x19
  4498d4:	a94153f3 	ldp	x19, x20, [sp, #16]
  4498d8:	f94013f5 	ldr	x21, [sp, #32]
  4498dc:	a8c37bfd 	ldp	x29, x30, [sp], #48
  4498e0:	d65f03c0 	ret
--
  449a68:	a94153f3 	ldp	x19, x20, [sp, #16]
  449a6c:	a9425bf5 	ldp	x21, x22, [sp, #32]
  449a70:	a94363f7 	ldp	x23, x24, [sp, #48]
  449a74:	f900037a 	str	x26, [x27]
  449a78:	a9446bf9 	ldp	x25, x26, [sp, #64]
  449a7c:	a94573fb 	ldp	x27, x28, [sp, #80]
  449a80:	f94033e0 	ldr	x0, [sp, #96]
  449a84:	a8c77bfd 	ldp	x29, x30, [sp], #112
  449a88:	d65f03c0 	ret
--
  449c14:	54000060 	b.eq	449c20 <fgetc+0x36810>  // b.none
  449c18:	d1004280 	sub	x0, x20, #0x10
  449c1c:	97ff4e3d 	bl	41d510 <fgetc+0xa100>
  449c20:	350000d7 	cbnz	w23, 449c38 <fgetc+0x36828>
  449c24:	a94153f3 	ldp	x19, x20, [sp, #16]
  449c28:	a9425bf5 	ldp	x21, x22, [sp, #32]
  449c2c:	f9401bf7 	ldr	x23, [sp, #48]
  449c30:	a8c47bfd 	ldp	x29, x30, [sp], #64
  449c34:	d65f03c0 	ret
--
  449c70:	f9400021 	ldr	x1, [x1]
  449c74:	f9400045 	ldr	x5, [x2]
  449c78:	eb0100bf 	cmp	x5, x1
  449c7c:	540000c1 	b.ne	449c94 <fgetc+0x36884>  // b.any
  449c80:	d37cec00 	lsl	x0, x0, #4
  449c84:	f8606840 	ldr	x0, [x2, x0]
  449c88:	b100041f 	cmn	x0, #0x1
  449c8c:	9a9f1000 	csel	x0, x0, xzr, ne  // ne = any
  449c90:	d65f03c0 	ret
--
  449cc8:	f9400064 	ldr	x4, [x3]
  449ccc:	eb01009f 	cmp	x4, x1
  449cd0:	54ffff89 	b.ls	449cc0 <fgetc+0x368b0>  // b.plast
  449cd4:	8b011061 	add	x1, x3, x1, lsl #4
  449cd8:	f9400821 	ldr	x1, [x1, #16]
  449cdc:	eb0100bf 	cmp	x5, x1
  449ce0:	54fffd02 	b.cs	449c80 <fgetc+0x36870>  // b.hs, b.nlast
  449ce4:	d2800000 	mov	x0, #0x0                   	// #0
  449ce8:	d65f03c0 	ret
--
  449d40:	8b131293 	add	x19, x20, x19, lsl #4
  449d44:	f9473000 	ldr	x0, [x0, #3680]
  449d48:	f9400000 	ldr	x0, [x0]
  449d4c:	91000400 	add	x0, x0, #0x1
  449d50:	a9015660 	stp	x0, x21, [x19, #16]
  449d54:	a94153f3 	ldp	x19, x20, [sp, #16]
  449d58:	a9425bf5 	ldp	x21, x22, [sp, #32]
  449d5c:	a8c37bfd 	ldp	x29, x30, [sp], #48
  449d60:	d65f03c0 	ret
--
  449e84:	528005e0 	mov	w0, #0x2f                  	// #47
  449e88:	79000280 	strh	w0, [x20]
  449e8c:	d282060c 	mov	x12, #0x1030                	// #4144
  449e90:	aa1403e0 	mov	x0, x20
  449e94:	a9407bfd 	ldp	x29, x30, [sp]
  449e98:	a94153f3 	ldp	x19, x20, [sp, #16]
  449e9c:	f94013f5 	ldr	x21, [sp, #32]
  449ea0:	8b2c63ff 	add	sp, sp, x12
  449ea4:	d65f03c0 	ret
--
  449f08:	54ffff60 	b.eq	449ef4 <fgetc+0x36ae4>  // b.none
  449f0c:	3900001f 	strb	wzr, [x0]
  449f10:	d282060c 	mov	x12, #0x1030                	// #4144
  449f14:	aa1403e0 	mov	x0, x20
  449f18:	a9407bfd 	ldp	x29, x30, [sp]
  449f1c:	a94153f3 	ldp	x19, x20, [sp, #16]
  449f20:	f94013f5 	ldr	x21, [sp, #32]
  449f24:	8b2c63ff 	add	sp, sp, x12
  449f28:	d65f03c0 	ret
  449f2c:	f94013f5 	ldr	x21, [sp, #32]
  449f30:	92800014 	mov	x20, #0xffffffffffffffff    	// #-1
  449f34:	d282060c 	mov	x12, #0x1030                	// #4144
  449f38:	aa1403e0 	mov	x0, x20
  449f3c:	a9407bfd 	ldp	x29, x30, [sp]
  449f40:	a94153f3 	ldp	x19, x20, [sp, #16]
  449f44:	8b2c63ff 	add	sp, sp, x12
  449f48:	d65f03c0 	ret
--
  449f68:	97ff582e 	bl	420020 <fgetc+0xcc10>
  449f6c:	3900001f 	strb	wzr, [x0]
  449f70:	d282060c 	mov	x12, #0x1030                	// #4144
  449f74:	aa1403e0 	mov	x0, x20
  449f78:	a9407bfd 	ldp	x29, x30, [sp]
  449f7c:	a94153f3 	ldp	x19, x20, [sp, #16]
  449f80:	f94013f5 	ldr	x21, [sp, #32]
  449f84:	8b2c63ff 	add	sp, sp, x12
  449f88:	d65f03c0 	ret
--
  449fbc:	910003fd 	mov	x29, sp
  449fc0:	a90153f3 	stp	x19, x20, [sp, #16]
  449fc4:	b9410033 	ldr	w19, [x1, #256]
  449fc8:	350000d3 	cbnz	w19, 449fe0 <fgetc+0x36bd0>
  449fcc:	97ff4d51 	bl	41d510 <fgetc+0xa100>
  449fd0:	2a1303e0 	mov	w0, w19
  449fd4:	a94153f3 	ldp	x19, x20, [sp, #16]
  449fd8:	a8c37bfd 	ldp	x29, x30, [sp], #48
  449fdc:	d65f03c0 	ret
--
  44a0e0:	d0000221 	adrp	x1, 490000 <fgetc+0x7cbf0>
  44a0e4:	f9476021 	ldr	x1, [x1, #3776]
  44a0e8:	b9400022 	ldr	w2, [x1]
  44a0ec:	f900027f 	str	xzr, [x19]
  44a0f0:	32000042 	orr	w2, w2, #0x1
  44a0f4:	b9000022 	str	w2, [x1]
  44a0f8:	f9400bf3 	ldr	x19, [sp, #16]
  44a0fc:	a8c27bfd 	ldp	x29, x30, [sp], #32
  44a100:	d65f03c0 	ret
  44a104:	d0000220 	adrp	x0, 490000 <fgetc+0x7cbf0>
  44a108:	f946e000 	ldr	x0, [x0, #3520]
  44a10c:	d53bd041 	mrs	x1, tpidr_el0
  44a110:	f9400bf3 	ldr	x19, [sp, #16]
  44a114:	a8c27bfd 	ldp	x29, x30, [sp], #32
  44a118:	b8606820 	ldr	w0, [x1, x0]
  44a11c:	d65f03c0 	ret
--
  44a334:	aa1303e1 	mov	x1, x19
  44a338:	97fed7de 	bl	4002b0 <.plt+0x10>
  44a33c:	a9005680 	stp	x0, x21, [x20]
  44a340:	f9000a95 	str	x21, [x20, #16]
  44a344:	a94153f3 	ldp	x19, x20, [sp, #16]
  44a348:	a9425bf5 	ldp	x21, x22, [sp, #32]
  44a34c:	a94363f7 	ldp	x23, x24, [sp, #48]
  44a350:	a8c47bfd 	ldp	x29, x30, [sp], #64
  44a354:	d65f03c0 	ret
--
  44a4a0:	aa1603e1 	mov	x1, x22
  44a4a4:	97fed783 	bl	4002b0 <.plt+0x10>
  44a4a8:	f90002e0 	str	x0, [x23]
  44a4ac:	a94153f3 	ldp	x19, x20, [sp, #16]
  44a4b0:	a9425bf5 	ldp	x21, x22, [sp, #32]
  44a4b4:	a94363f7 	ldp	x23, x24, [sp, #48]
  44a4b8:	a9446bf9 	ldp	x25, x26, [sp, #64]
  44a4bc:	a8cb7bfd 	ldp	x29, x30, [sp], #176
  44a4c0:	d65f03c0 	ret
--
  44a704:	911fa000 	add	x0, x0, #0x7e8
  44a708:	a90002e1 	stp	x1, x0, [x23]
  44a70c:	f9000aff 	str	xzr, [x23, #16]
  44a710:	a94153f3 	ldp	x19, x20, [sp, #16]
  44a714:	a9425bf5 	ldp	x21, x22, [sp, #32]
  44a718:	a94363f7 	ldp	x23, x24, [sp, #48]
  44a71c:	a9446bf9 	ldp	x25, x26, [sp, #64]
  44a720:	a8cb7bfd 	ldp	x29, x30, [sp], #176
  44a724:	d65f03c0 	ret
--
  44a768:	f9000bf3 	str	x19, [sp, #16]
  44a76c:	aa0003f3 	mov	x19, x0
  44a770:	f9400800 	ldr	x0, [x0, #16]
  44a774:	97ff4b67 	bl	41d510 <fgetc+0xa100>
  44a778:	a9007e7f 	stp	xzr, xzr, [x19]
  44a77c:	f9000a7f 	str	xzr, [x19, #16]
  44a780:	f9400bf3 	ldr	x19, [sp, #16]
  44a784:	a8c27bfd 	ldp	x29, x30, [sp], #32
  44a788:	d65f03c0 	ret
--
  44a7bc:	6b05009f 	cmp	w4, w5
  44a7c0:	540005c1 	b.ne	44a878 <fgetc+0x37468>  // b.any
  44a7c4:	39400404 	ldrb	w4, [x0, #1]
  44a7c8:	91000400 	add	x0, x0, #0x1
  44a7cc:	91000421 	add	x1, x1, #0x1
  44a7d0:	35fffe44 	cbnz	w4, 44a798 <fgetc+0x37388>
  44a7d4:	39400020 	ldrb	w0, [x1]
  44a7d8:	4b0003e0 	neg	w0, w0
  44a7dc:	d65f03c0 	ret
--
  44a84c:	5100c042 	sub	w2, w2, #0x30
  44a850:	5100c0a4 	sub	w4, w5, #0x30
  44a854:	12001c84 	and	w4, w4, #0xff
  44a858:	7100249f 	cmp	w4, #0x9
  44a85c:	54ffff29 	b.ls	44a840 <fgetc+0x37430>  // b.plast
  44a860:	6b03005f 	cmp	w2, w3
  44a864:	54fff960 	b.eq	44a790 <fgetc+0x37380>  // b.none
  44a868:	4b020060 	sub	w0, w3, w2
  44a86c:	d65f03c0 	ret
  44a870:	12800000 	mov	w0, #0xffffffff            	// #-1
  44a874:	d65f03c0 	ret
  44a878:	4b050080 	sub	w0, w4, w5
  44a87c:	d65f03c0 	ret
  44a880:	52800020 	mov	w0, #0x1                   	// #1
  44a884:	d65f03c0 	ret
--
  44aa70:	f9061ee0 	str	x0, [x23, #3128]
  44aa74:	f9000ac0 	str	x0, [x22, #16]
  44aa78:	910003bf 	mov	sp, x29
  44aa7c:	d2800000 	mov	x0, #0x0                   	// #0
  44aa80:	a94153f3 	ldp	x19, x20, [sp, #16]
  44aa84:	a9425bf5 	ldp	x21, x22, [sp, #32]
  44aa88:	f9401bf7 	ldr	x23, [sp, #48]
  44aa8c:	a8c57bfd 	ldp	x29, x30, [sp], #80
  44aa90:	d65f03c0 	ret
--
  44abf0:	aa0303e0 	mov	x0, x3
  44abf4:	97fed5af 	bl	4002b0 <.plt+0x10>
  44abf8:	97ff50cc 	bl	41ef28 <fgetc+0xbb18>
  44abfc:	910003bf 	mov	sp, x29
  44ac00:	a94153f3 	ldp	x19, x20, [sp, #16]
  44ac04:	a9425bf5 	ldp	x21, x22, [sp, #32]
  44ac08:	f9401bf7 	ldr	x23, [sp, #48]
  44ac0c:	a8c57bfd 	ldp	x29, x30, [sp], #80
  44ac10:	d65f03c0 	ret
--
  44aeb0:	f9000bf3 	str	x19, [sp, #16]
  44aeb4:	b0000253 	adrp	x19, 493000 <.got+0x24d0>
  44aeb8:	f9461e60 	ldr	x0, [x19, #3128]
  44aebc:	d1000401 	sub	x1, x0, #0x1
  44aec0:	b1000c3f 	cmn	x1, #0x3
  44aec4:	54000089 	b.ls	44aed4 <fgetc+0x37ac4>  // b.plast
  44aec8:	f9400bf3 	ldr	x19, [sp, #16]
  44aecc:	a8c27bfd 	ldp	x29, x30, [sp], #32
  44aed0:	d65f03c0 	ret
  44aed4:	9130e262 	add	x2, x19, #0xc38
  44aed8:	f9400441 	ldr	x1, [x2, #8]
  44aedc:	97ff642d 	bl	423f90 <fgetc+0x10b80>
  44aee0:	f9061e7f 	str	xzr, [x19, #3128]
  44aee4:	f9400bf3 	ldr	x19, [sp, #16]
  44aee8:	a8c27bfd 	ldp	x29, x30, [sp], #32
  44aeec:	d65f03c0 	ret
  44aef0:	f9400400 	ldr	x0, [x0, #8]
  44aef4:	d65f03c0 	ret
  44aef8:	f81f0fe1 	str	x1, [sp, #-16]!
  44aefc:	f9400400 	ldr	x0, [x0, #8]
  44af00:	d53bd041 	mrs	x1, tpidr_el0
  44af04:	cb010000 	sub	x0, x0, x1
  44af08:	f84107e1 	ldr	x1, [sp], #16
  44af0c:	d65f03c0 	ret
--
  44af3c:	b944f804 	ldr	w4, [x0, #1272]
  44af40:	b9400a61 	ldr	w1, [x19, #8]
  44af44:	f9400260 	ldr	x0, [x19]
  44af48:	f9400a62 	ldr	x2, [x19, #16]
  44af4c:	94000979 	bl	44d530 <fgetc+0x3a120>
  44af50:	f9000e60 	str	x0, [x19, #24]
  44af54:	f9400bf3 	ldr	x19, [sp, #16]
  44af58:	a8c27bfd 	ldp	x29, x30, [sp], #32
  44af5c:	d65f03c0 	ret
--
  44afb0:	f9401fe0 	ldr	x0, [sp, #56]
  44afb4:	f9400281 	ldr	x1, [x20]
  44afb8:	eb010000 	subs	x0, x0, x1
  44afbc:	d2800001 	mov	x1, #0x0                   	// #0
  44afc0:	54000161 	b.ne	44afec <fgetc+0x37bdc>  // b.any
  44afc4:	2a1303e0 	mov	w0, w19
  44afc8:	a94153f3 	ldp	x19, x20, [sp, #16]
  44afcc:	a8c47bfd 	ldp	x29, x30, [sp], #64
  44afd0:	d65f03c0 	ret
--
  44b078:	f94027e0 	ldr	x0, [sp, #72]
  44b07c:	f9400262 	ldr	x2, [x19]
  44b080:	eb020000 	subs	x0, x0, x2
  44b084:	d2800002 	mov	x2, #0x0                   	// #0
  44b088:	540000e1 	b.ne	44b0a4 <fgetc+0x37c94>  // b.any
  44b08c:	aa0103e0 	mov	x0, x1
  44b090:	f9400bf3 	ldr	x19, [sp, #16]
  44b094:	a8c57bfd 	ldp	x29, x30, [sp], #80
  44b098:	d65f03c0 	ret
--
  44b148:	f9402fe0 	ldr	x0, [sp, #88]
  44b14c:	f9400262 	ldr	x2, [x19]
  44b150:	eb020000 	subs	x0, x0, x2
  44b154:	d2800002 	mov	x2, #0x0                   	// #0
  44b158:	54000421 	b.ne	44b1dc <fgetc+0x37dcc>  // b.any
  44b15c:	aa0103e0 	mov	x0, x1
  44b160:	f9400bf3 	ldr	x19, [sp, #16]
  44b164:	a8c67bfd 	ldp	x29, x30, [sp], #96
  44b168:	d65f03c0 	ret
--
  44b248:	f9000a60 	str	x0, [x19, #16]
  44b24c:	f9401fe0 	ldr	x0, [sp, #56]
  44b250:	f9400281 	ldr	x1, [x20]
  44b254:	eb010000 	subs	x0, x0, x1
  44b258:	d2800001 	mov	x1, #0x0                   	// #0
  44b25c:	54000081 	b.ne	44b26c <fgetc+0x37e5c>  // b.any
  44b260:	a94153f3 	ldp	x19, x20, [sp, #16]
  44b264:	a8c47bfd 	ldp	x29, x30, [sp], #64
  44b268:	d65f03c0 	ret
--
  44b294:	f9000e7f 	str	xzr, [x19, #24]
  44b298:	52800005 	mov	w5, #0x0                   	// #0
  44b29c:	d2800004 	mov	x4, #0x0                   	// #0
  44b2a0:	910f2023 	add	x3, x1, #0x3c8
  44b2a4:	97ffe8c9 	bl	4455c8 <fgetc+0x321b8>
  44b2a8:	f9000a60 	str	x0, [x19, #16]
  44b2ac:	f9400bf3 	ldr	x19, [sp, #16]
  44b2b0:	a8c27bfd 	ldp	x29, x30, [sp], #32
  44b2b4:	d65f03c0 	ret
--
  44b2dc:	f9000e7f 	str	xzr, [x19, #24]
  44b2e0:	52800006 	mov	w6, #0x0                   	// #0
  44b2e4:	52800005 	mov	w5, #0x0                   	// #0
  44b2e8:	910f2023 	add	x3, x1, #0x3c8
  44b2ec:	97ffe8b7 	bl	4455c8 <fgetc+0x321b8>
  44b2f0:	f9000a60 	str	x0, [x19, #16]
  44b2f4:	f9400bf3 	ldr	x19, [sp, #16]
  44b2f8:	a8c27bfd 	ldp	x29, x30, [sp], #32
  44b2fc:	d65f03c0 	ret
--
  44b380:	f94027e0 	ldr	x0, [sp, #72]
  44b384:	f9400262 	ldr	x2, [x19]
  44b388:	eb020000 	subs	x0, x0, x2
  44b38c:	d2800002 	mov	x2, #0x0                   	// #0
  44b390:	540000e1 	b.ne	44b3ac <fgetc+0x37f9c>  // b.any
  44b394:	aa0103e0 	mov	x0, x1
  44b398:	f9400bf3 	ldr	x19, [sp, #16]
  44b39c:	a8c57bfd 	ldp	x29, x30, [sp], #80
  44b3a0:	d65f03c0 	ret
--
  44b3e4:	9122a021 	add	x1, x1, #0x8a8
  44b3e8:	97ffffc8 	bl	44b308 <fgetc+0x37ef8>
  44b3ec:	b4000080 	cbz	x0, 44b3fc <fgetc+0x37fec>
  44b3f0:	f0000221 	adrp	x1, 492000 <.got+0x14d0>
  44b3f4:	91242021 	add	x1, x1, #0x908
  44b3f8:	f9000001 	str	x1, [x0]
  44b3fc:	f9400bf3 	ldr	x19, [sp, #16]
  44b400:	a8c27bfd 	ldp	x29, x30, [sp], #32
  44b404:	d65f03c0 	ret
--
  44b470:	f94027e0 	ldr	x0, [sp, #72]
  44b474:	f9400262 	ldr	x2, [x19]
  44b478:	eb020000 	subs	x0, x0, x2
  44b47c:	d2800002 	mov	x2, #0x0                   	// #0
  44b480:	540000a1 	b.ne	44b494 <fgetc+0x38084>  // b.any
  44b484:	aa0103e0 	mov	x0, x1
  44b488:	f9400bf3 	ldr	x19, [sp, #16]
  44b48c:	a8c57bfd 	ldp	x29, x30, [sp], #80
  44b490:	d65f03c0 	ret
--
  44b6ac:	f9400002 	ldr	x2, [x0]
  44b6b0:	eb020021 	subs	x1, x1, x2
  44b6b4:	d2800002 	mov	x2, #0x0                   	// #0
  44b6b8:	540002a1 	b.ne	44b70c <fgetc+0x382fc>  // b.any
  44b6bc:	2a1303e0 	mov	w0, w19
  44b6c0:	a94153f3 	ldp	x19, x20, [sp, #16]
  44b6c4:	f94013f5 	ldr	x21, [sp, #32]
  44b6c8:	a8db7bfd 	ldp	x29, x30, [sp], #432
  44b6cc:	d65f03c0 	ret
--
  44b76c:	f94027e1 	ldr	x1, [sp, #72]
  44b770:	f9400262 	ldr	x2, [x19]
  44b774:	eb020021 	subs	x1, x1, x2
  44b778:	d2800002 	mov	x2, #0x0                   	// #0
  44b77c:	540000a1 	b.ne	44b790 <fgetc+0x38380>  // b.any
  44b780:	a94153f3 	ldp	x19, x20, [sp, #16]
  44b784:	a9425bf5 	ldp	x21, x22, [sp, #32]
  44b788:	a8c57bfd 	ldp	x29, x30, [sp], #80
  44b78c:	d65f03c0 	ret
--
  44ba50:	d4207d00 	brk	#0x3e8
  44ba54:	a94153f3 	ldp	x19, x20, [sp, #16]
  44ba58:	a9425bf5 	ldp	x21, x22, [sp, #32]
  44ba5c:	a94363f7 	ldp	x23, x24, [sp, #48]
  44ba60:	a9446bf9 	ldp	x25, x26, [sp, #64]
  44ba64:	a94573fb 	ldp	x27, x28, [sp, #80]
  44ba68:	f94043e0 	ldr	x0, [sp, #128]
  44ba6c:	a8cb7bfd 	ldp	x29, x30, [sp], #176
  44ba70:	d65f03c0 	ret
--
  44bbf0:	b10004bf 	cmn	x5, #0x1
  44bbf4:	54fff861 	b.ne	44bb00 <fgetc+0x386f0>  // b.any
  44bbf8:	a9000510 	stp	x16, x1, [x8]
  44bbfc:	a94153f3 	ldp	x19, x20, [sp, #16]
  44bc00:	a9425bf5 	ldp	x21, x22, [sp, #32]
  44bc04:	a9446bf9 	ldp	x25, x26, [sp, #64]
  44bc08:	f94043e0 	ldr	x0, [sp, #128]
  44bc0c:	a8cb7bfd 	ldp	x29, x30, [sp], #176
  44bc10:	d65f03c0 	ret
--
  44bdb4:	b100067f 	cmn	x19, #0x1
  44bdb8:	54fffd61 	b.ne	44bd64 <fgetc+0x38954>  // b.any
  44bdbc:	f9000040 	str	x0, [x2]
  44bdc0:	a94153f3 	ldp	x19, x20, [sp, #16]
  44bdc4:	a9425bf5 	ldp	x21, x22, [sp, #32]
  44bdc8:	a9446bf9 	ldp	x25, x26, [sp, #64]
  44bdcc:	f94043e0 	ldr	x0, [sp, #128]
  44bdd0:	a8cb7bfd 	ldp	x29, x30, [sp], #176
  44bdd4:	d65f03c0 	ret
--
  44be90:	9240cc24 	and	x4, x1, #0xfffffffffffff
  44be94:	f9000004 	str	x4, [x0]
  44be98:	d370fc21 	lsr	x1, x1, #48
  44be9c:	f27c283f 	tst	x1, #0x7ff0
  44bea0:	540000a1 	b.ne	44beb4 <fgetc+0x38aa4>  // b.any
  44bea4:	b5000104 	cbnz	x4, 44bec4 <fgetc+0x38ab4>
  44bea8:	d2800020 	mov	x0, #0x1                   	// #1
  44beac:	b900005f 	str	wzr, [x2]
  44beb0:	d65f03c0 	ret
  44beb4:	b24c0084 	orr	x4, x4, #0x10000000000000
  44beb8:	f9000004 	str	x4, [x0]
  44bebc:	d2800020 	mov	x0, #0x1                   	// #1
  44bec0:	d65f03c0 	ret
  44bec4:	dac01081 	clz	x1, x4
  44bec8:	12807fa3 	mov	w3, #0xfffffc02            	// #-1022
  44becc:	51002c21 	sub	w1, w1, #0xb
  44bed0:	4b010063 	sub	w3, w3, w1
  44bed4:	9ac12084 	lsl	x4, x4, x1
  44bed8:	f9000004 	str	x4, [x0]
  44bedc:	d2800020 	mov	x0, #0x1                   	// #1
  44bee0:	b9000043 	str	w3, [x2]
  44bee4:	d65f03c0 	ret
--
  44bf10:	a9001401 	stp	x1, x5, [x0]
  44bf14:	f250389f 	tst	x4, #0x7fff000000000000
  44bf18:	540000e1 	b.ne	44bf34 <fgetc+0x38b24>  // b.any
  44bf1c:	b5000161 	cbnz	x1, 44bf48 <fgetc+0x38b38>
  44bf20:	b50002e5 	cbnz	x5, 44bf7c <fgetc+0x38b6c>
  44bf24:	b900005f 	str	wzr, [x2]
  44bf28:	d2800040 	mov	x0, #0x2                   	// #2
  44bf2c:	910043ff 	add	sp, sp, #0x10
  44bf30:	d65f03c0 	ret
  44bf34:	b25000a5 	orr	x5, x5, #0x1000000000000
  44bf38:	f9000405 	str	x5, [x0, #8]
  44bf3c:	d2800040 	mov	x0, #0x2                   	// #2
  44bf40:	910043ff 	add	sp, sp, #0x10
  44bf44:	d65f03c0 	ret
--
  44bf58:	51003c64 	sub	w4, w3, #0xf
  44bf5c:	9ac42021 	lsl	x1, x1, x4
  44bf60:	a900041f 	stp	xzr, x1, [x0]
  44bf64:	128805c0 	mov	w0, #0xffffbfd1            	// #-16431
  44bf68:	4b030003 	sub	w3, w0, w3
  44bf6c:	b9000043 	str	w3, [x2]
  44bf70:	d2800040 	mov	x0, #0x2                   	// #2
  44bf74:	910043ff 	add	sp, sp, #0x10
  44bf78:	d65f03c0 	ret
--
  44bf90:	9ac320a5 	lsl	x5, x5, x3
  44bf94:	9ac42424 	lsr	x4, x1, x4
  44bf98:	aa050085 	orr	x5, x4, x5
  44bf9c:	9ac32021 	lsl	x1, x1, x3
  44bfa0:	a9001401 	stp	x1, x5, [x0]
  44bfa4:	d2800040 	mov	x0, #0x2                   	// #2
  44bfa8:	b9000046 	str	w6, [x2]
  44bfac:	910043ff 	add	sp, sp, #0x10
  44bfb0:	d65f03c0 	ret
--
  44bff8:	910b4021 	add	x1, x1, #0x2d0
  44bffc:	d503201f 	nop
  44c000:	34000080 	cbz	w0, 44c010 <fgetc+0x38c00>
  44c004:	91314260 	add	x0, x19, #0xc50
  44c008:	91002000 	add	x0, x0, #0x8
  44c00c:	f9062a60 	str	x0, [x19, #3152]
  44c010:	f9400bf3 	ldr	x19, [sp, #16]
  44c014:	a8c27bfd 	ldp	x29, x30, [sp], #32
  44c018:	d65f03c0 	ret
--
  44c0a4:	f94027e1 	ldr	x1, [sp, #72]
  44c0a8:	f9400282 	ldr	x2, [x20]
  44c0ac:	eb020021 	subs	x1, x1, x2
  44c0b0:	d2800002 	mov	x2, #0x0                   	// #0
  44c0b4:	54000e21 	b.ne	44c278 <fgetc+0x38e68>  // b.any
  44c0b8:	a94153f3 	ldp	x19, x20, [sp, #16]
  44c0bc:	a9425bf5 	ldp	x21, x22, [sp, #32]
  44c0c0:	a8c57bfd 	ldp	x29, x30, [sp], #80
  44c0c4:	d65f03c0 	ret
--
  44c294:	aa0003f3 	mov	x19, x0
  44c298:	90000121 	adrp	x1, 470000 <fgetc+0x5cbf0>
  44c29c:	aa1403e0 	mov	x0, x20
  44c2a0:	911fa021 	add	x1, x1, #0x7e8
  44c2a4:	97ff4a27 	bl	41eb40 <fgetc+0xb730>
  44c2a8:	35000080 	cbnz	w0, 44c2b8 <fgetc+0x38ea8>
  44c2ac:	a94153f3 	ldp	x19, x20, [sp, #16]
  44c2b0:	a8c27bfd 	ldp	x29, x30, [sp], #32
  44c2b4:	d65f03c0 	ret
  44c2b8:	aa1403e0 	mov	x0, x20
  44c2bc:	97ff4495 	bl	41d510 <fgetc+0xa100>
  44c2c0:	f900027f 	str	xzr, [x19]
  44c2c4:	a94153f3 	ldp	x19, x20, [sp, #16]
  44c2c8:	a8c27bfd 	ldp	x29, x30, [sp], #32
  44c2cc:	d65f03c0 	ret
--
  44c2fc:	f0000220 	adrp	x0, 493000 <.got+0x24d0>
  44c300:	d2800001 	mov	x1, #0x0                   	// #0
  44c304:	f9400bf3 	ldr	x19, [sp, #16]
  44c308:	a8c27bfd 	ldp	x29, x30, [sp], #32
  44c30c:	b94c7800 	ldr	w0, [x0, #3192]
  44c310:	d503201f 	nop
  44c314:	f9400bf3 	ldr	x19, [sp, #16]
  44c318:	a8c27bfd 	ldp	x29, x30, [sp], #32
  44c31c:	d65f03c0 	ret
--
  44c394:	b9000260 	str	w0, [x19]
  44c398:	f9400e60 	ldr	x0, [x19, #24]
  44c39c:	f100001f 	cmp	x0, #0x0
  44c3a0:	1a9f17e1 	cset	w1, eq  // eq = none
  44c3a4:	b9000661 	str	w1, [x19, #4]
  44c3a8:	1a9f07e0 	cset	w0, ne  // ne = any
  44c3ac:	a94153f3 	ldp	x19, x20, [sp, #16]
  44c3b0:	a8c47bfd 	ldp	x29, x30, [sp], #64
  44c3b4:	d65f03c0 	ret
--
  44c498:	91212021 	add	x1, x1, #0x848
  44c49c:	910003fd 	mov	x29, sp
  44c4a0:	97fffb9a 	bl	44b308 <fgetc+0x37ef8>
  44c4a4:	b4000080 	cbz	x0, 44c4b4 <fgetc+0x390a4>
  44c4a8:	d0000221 	adrp	x1, 492000 <.got+0x14d0>
  44c4ac:	9124a021 	add	x1, x1, #0x928
  44c4b0:	f9000001 	str	x1, [x0]
  44c4b4:	a8c17bfd 	ldp	x29, x30, [sp], #16
  44c4b8:	d65f03c0 	ret
--
  44c550:	54000221 	b.ne	44c594 <fgetc+0x39184>  // b.any
  44c554:	f9424041 	ldr	x1, [x2, #1152]
  44c558:	d2800000 	mov	x0, #0x0                   	// #0
  44c55c:	b50004e1 	cbnz	x1, 44c5f8 <fgetc+0x391e8>
  44c560:	f9400a61 	ldr	x1, [x19, #16]
  44c564:	f9400bf3 	ldr	x19, [sp, #16]
  44c568:	f9000020 	str	x0, [x1]
  44c56c:	a8c27bfd 	ldp	x29, x30, [sp], #32
  44c570:	d65f03c0 	ret
  44c574:	7100043f 	cmp	w1, #0x1
  44c578:	54000461 	b.ne	44c604 <fgetc+0x391f4>  // b.any
  44c57c:	f9400800 	ldr	x0, [x0, #16]
  44c580:	f9401841 	ldr	x1, [x2, #48]
  44c584:	f9000001 	str	x1, [x0]
  44c588:	f9400bf3 	ldr	x19, [sp, #16]
  44c58c:	a8c27bfd 	ldp	x29, x30, [sp], #32
  44c590:	d65f03c0 	ret
--
  44c5a8:	f941bc41 	ldr	x1, [x2, #888]
  44c5ac:	17ff49a5 	b	41ec40 <fgetc+0xb830>
  44c5b0:	f9400800 	ldr	x0, [x0, #16]
  44c5b4:	f9400bf3 	ldr	x19, [sp, #16]
  44c5b8:	f900001f 	str	xzr, [x0]
  44c5bc:	f9424041 	ldr	x1, [x2, #1152]
  44c5c0:	f9000001 	str	x1, [x0]
  44c5c4:	a8c27bfd 	ldp	x29, x30, [sp], #32
  44c5c8:	d65f03c0 	ret
--
  44c5d4:	f9400bf3 	ldr	x19, [sp, #16]
  44c5d8:	52800022 	mov	w2, #0x1                   	// #1
  44c5dc:	a8c27bfd 	ldp	x29, x30, [sp], #32
  44c5e0:	17ffe060 	b	444760 <fgetc+0x31350>
  44c5e4:	f9400800 	ldr	x0, [x0, #16]
  44c5e8:	f9400bf3 	ldr	x19, [sp, #16]
  44c5ec:	f9000002 	str	x2, [x0]
  44c5f0:	a8c27bfd 	ldp	x29, x30, [sp], #32
  44c5f4:	d65f03c0 	ret
--
  44c668:	5a9f03e0 	csetm	w0, ne  // ne = any
  44c66c:	f9401fe1 	ldr	x1, [sp, #56]
  44c670:	f9400262 	ldr	x2, [x19]
  44c674:	eb020021 	subs	x1, x1, x2
  44c678:	d2800002 	mov	x2, #0x0                   	// #0
  44c67c:	54000081 	b.ne	44c68c <fgetc+0x3927c>  // b.any
  44c680:	f9400bf3 	ldr	x19, [sp, #16]
  44c684:	a8c47bfd 	ldp	x29, x30, [sp], #64
  44c688:	d65f03c0 	ret
--
  44c6d8:	f9400046 	ldr	x6, [x2]
  44c6dc:	32010021 	orr	w1, w1, #0x80000000
  44c6e0:	f9401262 	ldr	x2, [x19, #32]
  44c6e4:	d2800003 	mov	x3, #0x0                   	// #0
  44c6e8:	94000392 	bl	44d530 <fgetc+0x3a120>
  44c6ec:	f9000e60 	str	x0, [x19, #24]
  44c6f0:	f9400bf3 	ldr	x19, [sp, #16]
  44c6f4:	a8c27bfd 	ldp	x29, x30, [sp], #32
  44c6f8:	d65f03c0 	ret
--
  44c77c:	f94027e0 	ldr	x0, [sp, #72]
  44c780:	f9400262 	ldr	x2, [x19]
  44c784:	eb020000 	subs	x0, x0, x2
  44c788:	d2800002 	mov	x2, #0x0                   	// #0
  44c78c:	540000a1 	b.ne	44c7a0 <fgetc+0x39390>  // b.any
  44c790:	aa0103e0 	mov	x0, x1
  44c794:	f9400bf3 	ldr	x19, [sp, #16]
  44c798:	a8c57bfd 	ldp	x29, x30, [sp], #80
  44c79c:	d65f03c0 	ret
--
  44c8d0:	d2800000 	mov	x0, #0x0                   	// #0
  44c8d4:	f945c4c6 	ldr	x6, [x6, #2952]
  44c8d8:	f9408fe1 	ldr	x1, [sp, #280]
  44c8dc:	f94000c2 	ldr	x2, [x6]
  44c8e0:	eb020021 	subs	x1, x1, x2
  44c8e4:	d2800002 	mov	x2, #0x0                   	// #0
  44c8e8:	54000161 	b.ne	44c914 <fgetc+0x39504>  // b.any
  44c8ec:	a8d27bfd 	ldp	x29, x30, [sp], #288
  44c8f0:	d65f03c0 	ret
--
  44c93c:	8b000261 	add	x1, x19, x0
  44c940:	34000102 	cbz	w2, 44c960 <fgetc+0x39550>
  44c944:	38206a7f 	strb	wzr, [x19, x0]
  44c948:	91000421 	add	x1, x1, #0x1
  44c94c:	f9000281 	str	x1, [x20]
  44c950:	aa1303e0 	mov	x0, x19
  44c954:	a94153f3 	ldp	x19, x20, [sp, #16]
  44c958:	a8c27bfd 	ldp	x29, x30, [sp], #32
  44c95c:	d65f03c0 	ret
  44c960:	f900029f 	str	xzr, [x20]
  44c964:	aa1303e0 	mov	x0, x19
  44c968:	a94153f3 	ldp	x19, x20, [sp, #16]
  44c96c:	a8c27bfd 	ldp	x29, x30, [sp], #32
  44c970:	d65f03c0 	ret
--
  44c978:	b2407be3 	mov	x3, #0x7fffffff            	// #2147483647
  44c97c:	eb03005f 	cmp	x2, x3
  44c980:	93407c00 	sxtw	x0, w0
  44c984:	9a839042 	csel	x2, x2, x3, ls  // ls = plast
  44c988:	d28007a8 	mov	x8, #0x3d                  	// #61
  44c98c:	d4000001 	svc	#0x0
  44c990:	b140041f 	cmn	x0, #0x1, lsl #12
  44c994:	54000048 	b.hi	44c99c <fgetc+0x3958c>  // b.pmore
  44c998:	d65f03c0 	ret
  44c99c:	90000221 	adrp	x1, 490000 <fgetc+0x7cbf0>
  44c9a0:	f946e021 	ldr	x1, [x1, #3520]
  44c9a4:	d53bd042 	mrs	x2, tpidr_el0
  44c9a8:	4b0003e3 	neg	w3, w0
  44c9ac:	92800000 	mov	x0, #0xffffffffffffffff    	// #-1
  44c9b0:	b8216843 	str	w3, [x2, x1]
  44c9b4:	d65f03c0 	ret
  44c9b8:	d503201f 	nop
  44c9bc:	d503201f 	nop
  44c9c0:	d2801588 	mov	x8, #0xac                  	// #172
  44c9c4:	d4000001 	svc	#0x0
  44c9c8:	d65f03c0 	ret
  44c9cc:	d503201f 	nop
  44c9d0:	350001e0 	cbnz	w0, 44ca0c <fgetc+0x395fc>
  44c9d4:	92800c60 	mov	x0, #0xffffffffffffff9c    	// #-100
  44c9d8:	d2800003 	mov	x3, #0x0                   	// #0
  44c9dc:	d28009e8 	mov	x8, #0x4f                  	// #79
  44c9e0:	d4000001 	svc	#0x0
  44c9e4:	b140041f 	cmn	x0, #0x1, lsl #12
  44c9e8:	54000048 	b.hi	44c9f0 <fgetc+0x395e0>  // b.pmore
  44c9ec:	d65f03c0 	ret
  44c9f0:	90000221 	adrp	x1, 490000 <fgetc+0x7cbf0>
  44c9f4:	f946e021 	ldr	x1, [x1, #3520]
  44c9f8:	d53bd042 	mrs	x2, tpidr_el0
  44c9fc:	4b0003e3 	neg	w3, w0
  44ca00:	12800000 	mov	w0, #0xffffffff            	// #-1
  44ca04:	b8216843 	str	w3, [x2, x1]
  44ca08:	d65f03c0 	ret
  44ca0c:	90000221 	adrp	x1, 490000 <fgetc+0x7cbf0>
  44ca10:	f946e021 	ldr	x1, [x1, #3520]
  44ca14:	d53bd042 	mrs	x2, tpidr_el0
  44ca18:	528002c3 	mov	w3, #0x16                  	// #22
  44ca1c:	12800000 	mov	w0, #0xffffffff            	// #-1
  44ca20:	b8216843 	str	w3, [x2, x1]
  44ca24:	d65f03c0 	ret
  44ca28:	93407c00 	sxtw	x0, w0
  44ca2c:	d2800868 	mov	x8, #0x43                  	// #67
  44ca30:	d4000001 	svc	#0x0
  44ca34:	b140041f 	cmn	x0, #0x1, lsl #12
  44ca38:	54000048 	b.hi	44ca40 <fgetc+0x39630>  // b.pmore
  44ca3c:	d65f03c0 	ret
  44ca40:	90000221 	adrp	x1, 490000 <fgetc+0x7cbf0>
  44ca44:	f946e021 	ldr	x1, [x1, #3520]
  44ca48:	d53bd042 	mrs	x2, tpidr_el0
  44ca4c:	4b0003e3 	neg	w3, w0
  44ca50:	92800000 	mov	x0, #0xffffffffffffffff    	// #-1
  44ca54:	b8216843 	str	w3, [x2, x1]
  44ca58:	d65f03c0 	ret
--
  44ca8c:	8b414000 	add	x0, x0, x1, lsr #16
  44ca90:	eb04001f 	cmp	x0, x4
  44ca94:	540000c2 	b.cs	44caac <fgetc+0x3969c>  // b.hs, b.nlast
  44ca98:	f9400c62 	ldr	x2, [x3, #24]
  44ca9c:	d37ff800 	lsl	x0, x0, #1
  44caa0:	78606841 	ldrh	w1, [x2, x0]
  44caa4:	11000421 	add	w1, w1, #0x1
  44caa8:	78206841 	strh	w1, [x2, x0]
  44caac:	d65f03c0 	ret
--
  44cbc4:	f94002a2 	ldr	x2, [x21]
  44cbc8:	eb020021 	subs	x1, x1, x2
  44cbcc:	d2800002 	mov	x2, #0x0                   	// #0
  44cbd0:	540002c1 	b.ne	44cc28 <fgetc+0x39818>  // b.any
  44cbd4:	a94153f3 	ldp	x19, x20, [sp, #16]
  44cbd8:	a9425bf5 	ldp	x21, x22, [sp, #32]
  44cbdc:	f94023f9 	ldr	x25, [sp, #64]
  44cbe0:	a8d17bfd 	ldp	x29, x30, [sp], #272
  44cbe4:	d65f03c0 	ret
--
  44cc1c:	a94363f7 	ldp	x23, x24, [sp, #48]
  44cc20:	12800000 	mov	w0, #0xffffffff            	// #-1
  44cc24:	17ffffe6 	b	44cbbc <fgetc+0x397ac>
  44cc28:	a90363f7 	stp	x23, x24, [sp, #48]
  44cc2c:	97ff6275 	bl	425600 <fgetc+0x121f0>
  44cc30:	90000220 	adrp	x0, 490000 <fgetc+0x7cbf0>
  44cc34:	f9473800 	ldr	x0, [x0, #3696]
  44cc38:	b9400000 	ldr	w0, [x0]
  44cc3c:	d65f03c0 	ret
--
  44cd48:	90000220 	adrp	x0, 490000 <fgetc+0x7cbf0>
  44cd4c:	f9467400 	ldr	x0, [x0, #3304]
  44cd50:	b9400000 	ldr	w0, [x0]
  44cd54:	35000040 	cbnz	w0, 44cd5c <fgetc+0x3994c>
  44cd58:	f9000263 	str	x3, [x19]
  44cd5c:	aa0303e0 	mov	x0, x3
  44cd60:	a94153f3 	ldp	x19, x20, [sp, #16]
  44cd64:	a8c57bfd 	ldp	x29, x30, [sp], #80
  44cd68:	d65f03c0 	ret
--
  44cfb0:	aa1403e1 	mov	x1, x20
  44cfb4:	aa1503e0 	mov	x0, x21
  44cfb8:	97fff090 	bl	4491f8 <fgetc+0x35de8>
  44cfbc:	aa1403e0 	mov	x0, x20
  44cfc0:	a94153f3 	ldp	x19, x20, [sp, #16]
  44cfc4:	a9425bf5 	ldp	x21, x22, [sp, #32]
  44cfc8:	a94363f7 	ldp	x23, x24, [sp, #48]
  44cfcc:	a8c77bfd 	ldp	x29, x30, [sp], #112
  44cfd0:	d65f03c0 	ret
--
  44cfd8:	f9000082 	str	x2, [x4]
  44cfdc:	97ffff19 	bl	44cc40 <fgetc+0x39830>
  44cfe0:	aa0003f4 	mov	x20, x0
  44cfe4:	aa1403e0 	mov	x0, x20
  44cfe8:	a94153f3 	ldp	x19, x20, [sp, #16]
  44cfec:	a9425bf5 	ldp	x21, x22, [sp, #32]
  44cff0:	a94363f7 	ldp	x23, x24, [sp, #48]
  44cff4:	a8c77bfd 	ldp	x29, x30, [sp], #112
  44cff8:	d65f03c0 	ret
--
  44d0f0:	90000120 	adrp	x0, 471000 <fgetc+0x5dbf0>
  44d0f4:	91236063 	add	x3, x3, #0x8d8
  44d0f8:	91224021 	add	x1, x1, #0x890
  44d0fc:	91228000 	add	x0, x0, #0x8a0
  44d100:	52801ca2 	mov	w2, #0xe5                  	// #229
  44d104:	a9046bf9 	stp	x25, x26, [sp, #64]
  44d108:	97fed336 	bl	401de0 <main212+0xfec>
  44d10c:	d503201f 	nop
  44d110:	d65f03c0 	ret
--
  44d230:	d5033bbf 	dmb	ish
  44d234:	f9400b00 	ldr	x0, [x24, #16]
  44d238:	a94153f3 	ldp	x19, x20, [sp, #16]
  44d23c:	a9425bf5 	ldp	x21, x22, [sp, #32]
  44d240:	a94363f7 	ldp	x23, x24, [sp, #48]
  44d244:	a9446bf9 	ldp	x25, x26, [sp, #64]
  44d248:	b9000803 	str	w3, [x0, #8]
  44d24c:	a8c57bfd 	ldp	x29, x30, [sp], #80
  44d250:	d65f03c0 	ret
--
  44d3bc:	f940031b 	ldr	x27, [x24]
  44d3c0:	350001f7 	cbnz	w23, 44d3fc <fgetc+0x39fec>
  44d3c4:	a94153f3 	ldp	x19, x20, [sp, #16]
  44d3c8:	a9425bf5 	ldp	x21, x22, [sp, #32]
  44d3cc:	a94363f7 	ldp	x23, x24, [sp, #48]
  44d3d0:	a9446bf9 	ldp	x25, x26, [sp, #64]
  44d3d4:	f9402bfb 	ldr	x27, [sp, #80]
  44d3d8:	a8c67bfd 	ldp	x29, x30, [sp], #96
  44d3dc:	d65f03c0 	ret
--
  44d4d0:	940008ec 	bl	44f880 <fgetc+0x3c470>
  44d4d4:	35000100 	cbnz	w0, 44d4f4 <fgetc+0x3a0e4>
  44d4d8:	f9400e73 	ldr	x19, [x19, #24]
  44d4dc:	b5fffe73 	cbnz	x19, 44d4a8 <fgetc+0x3a098>
  44d4e0:	d2800013 	mov	x19, #0x0                   	// #0
  44d4e4:	aa1303e0 	mov	x0, x19
  44d4e8:	a94153f3 	ldp	x19, x20, [sp, #16]
  44d4ec:	a8c27bfd 	ldp	x29, x30, [sp], #32
  44d4f0:	d65f03c0 	ret
  44d4f4:	f9401a60 	ldr	x0, [x19, #48]
  44d4f8:	b50000a0 	cbnz	x0, 44d50c <fgetc+0x3a0fc>
  44d4fc:	aa1303e0 	mov	x0, x19
  44d500:	a94153f3 	ldp	x19, x20, [sp, #16]
  44d504:	a8c27bfd 	ldp	x29, x30, [sp], #32
  44d508:	d65f03c0 	ret
--
  44d620:	f9477800 	ldr	x0, [x0, #3824]
  44d624:	d503201f 	nop
  44d628:	a94153f3 	ldp	x19, x20, [sp, #16]
  44d62c:	a9425bf5 	ldp	x21, x22, [sp, #32]
  44d630:	a94363f7 	ldp	x23, x24, [sp, #48]
  44d634:	a9446bf9 	ldp	x25, x26, [sp, #64]
  44d638:	f94047e0 	ldr	x0, [sp, #136]
  44d63c:	a8cb7bfd 	ldp	x29, x30, [sp], #176
  44d640:	d65f03c0 	ret
--
  44dc9c:	9100001f 	mov	sp, x0
  44dca0:	910003bf 	mov	sp, x29
  44dca4:	a94153f3 	ldp	x19, x20, [sp, #16]
  44dca8:	a9425bf5 	ldp	x21, x22, [sp, #32]
  44dcac:	a94363f7 	ldp	x23, x24, [sp, #48]
  44dcb0:	a9446bf9 	ldp	x25, x26, [sp, #64]
  44dcb4:	a94573fb 	ldp	x27, x28, [sp, #80]
  44dcb8:	a8cc7bfd 	ldp	x29, x30, [sp], #192
  44dcbc:	d65f03c0 	ret
--
  44e20c:	f94013f5 	ldr	x21, [sp, #32]
  44e210:	a8c37bfd 	ldp	x29, x30, [sp], #48
  44e214:	f9400420 	ldr	x0, [x1, #8]
  44e218:	8b020000 	add	x0, x0, x2
  44e21c:	aa0003f0 	mov	x16, x0
  44e220:	d61f0200 	br	x16
  44e224:	f94013f5 	ldr	x21, [sp, #32]
  44e228:	a8c37bfd 	ldp	x29, x30, [sp], #48
  44e22c:	d65f03c0 	ret
--
  44e2a0:	d37cec01 	lsl	x1, x0, #4
  44e2a4:	f8616861 	ldr	x1, [x3, x1]
  44e2a8:	b50004a1 	cbnz	x1, 44e33c <fgetc+0x3af2c>
  44e2ac:	eb04001f 	cmp	x0, x4
  44e2b0:	54ffff48 	b.hi	44e298 <fgetc+0x3ae88>  // b.pmore
  44e2b4:	52800000 	mov	w0, #0x0                   	// #0
  44e2b8:	a94153f3 	ldp	x19, x20, [sp, #16]
  44e2bc:	a8c27bfd 	ldp	x29, x30, [sp], #32
  44e2c0:	d65f03c0 	ret
--
  44e2f4:	d0000200 	adrp	x0, 490000 <fgetc+0x7cbf0>
  44e2f8:	f9466c00 	ldr	x0, [x0, #3288]
  44e2fc:	f9400000 	ldr	x0, [x0]
  44e300:	eb01001f 	cmp	x0, x1
  44e304:	54fffb80 	b.eq	44e274 <fgetc+0x3ae64>  // b.none
  44e308:	52800020 	mov	w0, #0x1                   	// #1
  44e30c:	a94153f3 	ldp	x19, x20, [sp, #16]
  44e310:	a8c27bfd 	ldp	x29, x30, [sp], #32
  44e314:	d65f03c0 	ret
--
  44e334:	52800762 	mov	w2, #0x3b                  	// #59
  44e338:	97feceaa 	bl	401de0 <main212+0xfec>
  44e33c:	d0000201 	adrp	x1, 490000 <fgetc+0x7cbf0>
  44e340:	52800020 	mov	w0, #0x1                   	// #1
  44e344:	a94153f3 	ldp	x19, x20, [sp, #16]
  44e348:	f9466c21 	ldr	x1, [x1, #3288]
  44e34c:	f9000025 	str	x5, [x1]
  44e350:	a8c27bfd 	ldp	x29, x30, [sp], #32
  44e354:	d65f03c0 	ret
--
  44e63c:	37300161 	tbnz	w1, #6, 44e668 <fgetc+0x3b258>
  44e640:	910003bf 	mov	sp, x29
  44e644:	a94153f3 	ldp	x19, x20, [sp, #16]
  44e648:	a9425bf5 	ldp	x21, x22, [sp, #32]
  44e64c:	a94363f7 	ldp	x23, x24, [sp, #48]
  44e650:	a9446bf9 	ldp	x25, x26, [sp, #64]
  44e654:	a94573fb 	ldp	x27, x28, [sp, #80]
  44e658:	a8cd7bfd 	ldp	x29, x30, [sp], #208
  44e65c:	d65f03c0 	ret
--
  44f184:	b40000c0 	cbz	x0, 44f19c <fgetc+0x3bd8c>
  44f188:	b0000200 	adrp	x0, 490000 <fgetc+0x7cbf0>
  44f18c:	f9400bf3 	ldr	x19, [sp, #16]
  44f190:	a8c27bfd 	ldp	x29, x30, [sp], #32
  44f194:	f9477800 	ldr	x0, [x0, #3824]
  44f198:	d503201f 	nop
  44f19c:	f9400bf3 	ldr	x19, [sp, #16]
  44f1a0:	a8c27bfd 	ldp	x29, x30, [sp], #32
  44f1a4:	d65f03c0 	ret
--
  44f310:	9100001f 	mov	sp, x0
  44f314:	910003bf 	mov	sp, x29
  44f318:	a94153f3 	ldp	x19, x20, [sp, #16]
  44f31c:	a9425bf5 	ldp	x21, x22, [sp, #32]
  44f320:	a94363f7 	ldp	x23, x24, [sp, #48]
  44f324:	a9446bf9 	ldp	x25, x26, [sp, #64]
  44f328:	a94573fb 	ldp	x27, x28, [sp, #80]
  44f32c:	a8cb7bfd 	ldp	x29, x30, [sp], #176
  44f330:	d65f03c0 	ret
--
  44f534:	54000121 	b.ne	44f558 <fgetc+0x3c148>  // b.any
  44f538:	f0000200 	adrp	x0, 492000 <.got+0x14d0>
  44f53c:	91264000 	add	x0, x0, #0x990
  44f540:	d63f0260 	blr	x19
  44f544:	aa1403e0 	mov	x0, x20
  44f548:	97ffdbc8 	bl	446468 <fgetc+0x33058>
  44f54c:	a94153f3 	ldp	x19, x20, [sp, #16]
  44f550:	a8c37bfd 	ldp	x29, x30, [sp], #48
  44f554:	d65f03c0 	ret
--
  44f6e0:	b0000200 	adrp	x0, 490000 <fgetc+0x7cbf0>
  44f6e4:	f9477800 	ldr	x0, [x0, #3824]
  44f6e8:	d503201f 	nop
  44f6ec:	2a1703e0 	mov	w0, w23
  44f6f0:	a94153f3 	ldp	x19, x20, [sp, #16]
  44f6f4:	a9425bf5 	ldp	x21, x22, [sp, #32]
  44f6f8:	f9401bf7 	ldr	x23, [sp, #48]
  44f6fc:	a8c47bfd 	ldp	x29, x30, [sp], #64
  44f700:	d65f03c0 	ret
--
  44f8c4:	b9400040 	ldr	w0, [x2]
  44f8c8:	7100041f 	cmp	w0, #0x1
  44f8cc:	54ffff61 	b.ne	44f8b8 <fgetc+0x3c4a8>  // b.any
  44f8d0:	f9400843 	ldr	x3, [x2, #16]
  44f8d4:	f9401445 	ldr	x5, [x2, #40]
  44f8d8:	cb030023 	sub	x3, x1, x3
  44f8dc:	eb05007f 	cmp	x3, x5
  44f8e0:	54fffec2 	b.cs	44f8b8 <fgetc+0x3c4a8>  // b.hs, b.nlast
  44f8e4:	d65f03c0 	ret
  44f8e8:	52800000 	mov	w0, #0x0                   	// #0
  44f8ec:	d65f03c0 	ret
--
  44f940:	f9400046 	ldr	x6, [x2]
  44f944:	32010021 	orr	w1, w1, #0x80000000
  44f948:	f9400e62 	ldr	x2, [x19, #24]
  44f94c:	d2800003 	mov	x3, #0x0                   	// #0
  44f950:	97fff6f8 	bl	44d530 <fgetc+0x3a120>
  44f954:	f9000a60 	str	x0, [x19, #16]
  44f958:	f9400bf3 	ldr	x19, [sp, #16]
  44f95c:	a8c27bfd 	ldp	x29, x30, [sp], #32
  44f960:	d65f03c0 	ret
--
  44f9f4:	f94027e0 	ldr	x0, [sp, #72]
  44f9f8:	f9400262 	ldr	x2, [x19]
  44f9fc:	eb020000 	subs	x0, x0, x2
  44fa00:	d2800002 	mov	x2, #0x0                   	// #0
  44fa04:	540000a1 	b.ne	44fa18 <fgetc+0x3c608>  // b.any
  44fa08:	aa0103e0 	mov	x0, x1
  44fa0c:	f9400bf3 	ldr	x19, [sp, #16]
  44fa10:	a8c57bfd 	ldp	x29, x30, [sp], #80
  44fa14:	d65f03c0 	ret
--
  44fa2c:	90000002 	adrp	x2, 44f000 <fgetc+0x3bbf0>
  44fa30:	aa0003e1 	mov	x1, x0
  44fa34:	910003fd 	mov	x29, sp
  44fa38:	91288040 	add	x0, x2, #0xa20
  44fa3c:	97fff239 	bl	44c320 <fgetc+0x38f10>
  44fa40:	7100001f 	cmp	w0, #0x0
  44fa44:	5a9f03e0 	csetm	w0, ne  // ne = any
  44fa48:	a8c17bfd 	ldp	x29, x30, [sp], #16
  44fa4c:	d65f03c0 	ret
--
  44fa58:	f9000bf3 	str	x19, [sp, #16]
  44fa5c:	aa0003f3 	mov	x19, x0
  44fa60:	a9400400 	ldp	x0, x1, [x0]
  44fa64:	f9400a62 	ldr	x2, [x19, #16]
  44fa68:	9400074c 	bl	451798 <fgetc+0x3e388>
  44fa6c:	f9000e60 	str	x0, [x19, #24]
  44fa70:	f9400bf3 	ldr	x19, [sp, #16]
  44fa74:	a8c27bfd 	ldp	x29, x30, [sp], #32
  44fa78:	d65f03c0 	ret
--
  44faf8:	f94027e0 	ldr	x0, [sp, #72]
  44fafc:	f9400261 	ldr	x1, [x19]
  44fb00:	eb010000 	subs	x0, x0, x1
  44fb04:	d2800001 	mov	x1, #0x0                   	// #0
  44fb08:	540000a1 	b.ne	44fb1c <fgetc+0x3c70c>  // b.any
  44fb0c:	aa1403e0 	mov	x0, x20
  44fb10:	a94153f3 	ldp	x19, x20, [sp, #16]
  44fb14:	a8c57bfd 	ldp	x29, x30, [sp], #80
  44fb18:	d65f03c0 	ret
--
  44fb28:	f9000bf3 	str	x19, [sp, #16]
  44fb2c:	aa0003f3 	mov	x19, x0
  44fb30:	a9400400 	ldp	x0, x1, [x0]
  44fb34:	a9410e62 	ldp	x2, x3, [x19, #16]
  44fb38:	940006da 	bl	4516a0 <fgetc+0x3e290>
  44fb3c:	f9001260 	str	x0, [x19, #32]
  44fb40:	f9400bf3 	ldr	x19, [sp, #16]
  44fb44:	a8c27bfd 	ldp	x29, x30, [sp], #32
  44fb48:	d65f03c0 	ret
--
  44fbc8:	f94027e0 	ldr	x0, [sp, #72]
  44fbcc:	f9400261 	ldr	x1, [x19]
  44fbd0:	eb010000 	subs	x0, x0, x1
  44fbd4:	d2800001 	mov	x1, #0x0                   	// #0
  44fbd8:	540000a1 	b.ne	44fbec <fgetc+0x3c7dc>  // b.any
  44fbdc:	aa1403e0 	mov	x0, x20
  44fbe0:	a94153f3 	ldp	x19, x20, [sp, #16]
  44fbe4:	a8c57bfd 	ldp	x29, x30, [sp], #80
  44fbe8:	d65f03c0 	ret
  44fbec:	97ff5685 	bl	425600 <fgetc+0x121f0>
  44fbf0:	d2800ce8 	mov	x8, #0x67                  	// #103
  44fbf4:	d4000001 	svc	#0x0
  44fbf8:	b13ffc1f 	cmn	x0, #0xfff
  44fbfc:	54000042 	b.cs	44fc04 <fgetc+0x3c7f4>  // b.hs, b.nlast
  44fc00:	d65f03c0 	ret
--
  44fc58:	54000120 	b.eq	44fc7c <fgetc+0x3c86c>  // b.none
  44fc5c:	f8408e61 	ldr	x1, [x19, #8]!
  44fc60:	b5ffff81 	cbnz	x1, 44fc50 <fgetc+0x3c840>
  44fc64:	cb150294 	sub	x20, x20, x21
  44fc68:	9343fe80 	asr	x0, x20, #3
  44fc6c:	a94153f3 	ldp	x19, x20, [sp, #16]
  44fc70:	f94013f5 	ldr	x21, [sp, #32]
  44fc74:	a8c37bfd 	ldp	x29, x30, [sp], #48
  44fc78:	d65f03c0 	ret
--
  44fcb4:	54000041 	b.ne	44fcbc <fgetc+0x3c8ac>  // b.any
  44fcb8:	52800022 	mov	w2, #0x1                   	// #1
  44fcbc:	29411263 	ldp	w3, w4, [x19, #8]
  44fcc0:	f9401805 	ldr	x5, [x0, #48]
  44fcc4:	97ffd0ab 	bl	443f70 <fgetc+0x30b60>
  44fcc8:	f9001260 	str	x0, [x19, #32]
  44fccc:	f9400bf3 	ldr	x19, [sp, #16]
  44fcd0:	a8c27bfd 	ldp	x29, x30, [sp], #32
  44fcd4:	d65f03c0 	ret
--
  450448:	d10043bf 	sub	sp, x29, #0x10
  45044c:	a9417bfd 	ldp	x29, x30, [sp, #16]
  450450:	a94253f3 	ldp	x19, x20, [sp, #32]
  450454:	a9435bf5 	ldp	x21, x22, [sp, #48]
  450458:	a94463f7 	ldp	x23, x24, [sp, #64]
  45045c:	a9456bf9 	ldp	x25, x26, [sp, #80]
  450460:	a94673fb 	ldp	x27, x28, [sp, #96]
  450464:	9114c3ff 	add	sp, sp, #0x530
  450468:	d65f03c0 	ret
--
  450afc:	2a1503e0 	mov	w0, w21
  450b00:	d63f0060 	blr	x3
  450b04:	eb13029f 	cmp	x20, x19
  450b08:	54ffff41 	b.ne	450af0 <fgetc+0x3d6e0>  // b.any
  450b0c:	a94153f3 	ldp	x19, x20, [sp, #16]
  450b10:	a9425bf5 	ldp	x21, x22, [sp, #32]
  450b14:	f9401bf7 	ldr	x23, [sp, #48]
  450b18:	a8c47bfd 	ldp	x29, x30, [sp], #64
  450b1c:	d65f03c0 	ret
--
  450c08:	97ffff90 	bl	450a48 <fgetc+0x3d638>
  450c0c:	b100227f 	cmn	x19, #0x8
  450c10:	54fffec1 	b.ne	450be8 <fgetc+0x3d7d8>  // b.any
  450c14:	a94153f3 	ldp	x19, x20, [sp, #16]
  450c18:	a9425bf5 	ldp	x21, x22, [sp, #32]
  450c1c:	a94363f7 	ldp	x23, x24, [sp, #48]
  450c20:	f94023f9 	ldr	x25, [sp, #64]
  450c24:	a8c57bfd 	ldp	x29, x30, [sp], #80
  450c28:	d65f03c0 	ret
--
  450f14:	17ffffae 	b	450dcc <fgetc+0x3d9bc>
  450f18:	f9404fe0 	ldr	x0, [sp, #152]
  450f1c:	52800013 	mov	w19, #0x0                   	// #0
  450f20:	b5000860 	cbnz	x0, 45102c <fgetc+0x3dc1c>
  450f24:	a94153f3 	ldp	x19, x20, [sp, #16]
  450f28:	52800000 	mov	w0, #0x0                   	// #0
  450f2c:	a94573fb 	ldp	x27, x28, [sp, #80]
  450f30:	a8ce7bfd 	ldp	x29, x30, [sp], #224
  450f34:	d65f03c0 	ret
--
  451394:	7100001f 	cmp	w0, #0x0
  451398:	1a9f07e0 	cset	w0, ne  // ne = any
  45139c:	2a000294 	orr	w20, w20, w0
  4513a0:	b5fffed3 	cbnz	x19, 451378 <fgetc+0x3df68>
  4513a4:	2a1403e0 	mov	w0, w20
  4513a8:	a94153f3 	ldp	x19, x20, [sp, #16]
  4513ac:	a9425bf5 	ldp	x21, x22, [sp, #32]
  4513b0:	a8c37bfd 	ldp	x29, x30, [sp], #48
  4513b4:	d65f03c0 	ret
  4513b8:	52800014 	mov	w20, #0x0                   	// #0
  4513bc:	2a1403e0 	mov	w0, w20
  4513c0:	a94153f3 	ldp	x19, x20, [sp, #16]
  4513c4:	a8c37bfd 	ldp	x29, x30, [sp], #48
  4513c8:	d65f03c0 	ret
--
  4513ec:	a9400001 	ldp	x1, x0, [x0]
  4513f0:	f9400a64 	ldr	x4, [x19, #16]
  4513f4:	f9401662 	ldr	x2, [x19, #40]
  4513f8:	f941e023 	ldr	x3, [x1, #960]
  4513fc:	97ffd073 	bl	4455c8 <fgetc+0x321b8>
  451400:	f9000260 	str	x0, [x19]
  451404:	f9400bf3 	ldr	x19, [sp, #16]
  451408:	a8c27bfd 	ldp	x29, x30, [sp], #32
  45140c:	d65f03c0 	ret
--
  4514bc:	f9400261 	ldr	x1, [x19]
  4514c0:	eb010000 	subs	x0, x0, x1
  4514c4:	d2800001 	mov	x1, #0x0                   	// #0
  4514c8:	54000ea1 	b.ne	45169c <fgetc+0x3e28c>  // b.any
  4514cc:	aa0203e0 	mov	x0, x2
  4514d0:	a94153f3 	ldp	x19, x20, [sp, #16]
  4514d4:	a9425bf5 	ldp	x21, x22, [sp, #32]
  4514d8:	a8ca7bfd 	ldp	x29, x30, [sp], #160
  4514dc:	d65f03c0 	ret
--
  451704:	f945c673 	ldr	x19, [x19, #2952]
  451708:	f9401fe1 	ldr	x1, [sp, #56]
  45170c:	f9400262 	ldr	x2, [x19]
  451710:	eb020021 	subs	x1, x1, x2
  451714:	d2800002 	mov	x2, #0x0                   	// #0
  451718:	540003e1 	b.ne	451794 <fgetc+0x3e384>  // b.any
  45171c:	f9400bf3 	ldr	x19, [sp, #16]
  451720:	a8c47bfd 	ldp	x29, x30, [sp], #64
  451724:	d65f03c0 	ret
--
  4517a4:	d503201f 	nop
  4517a8:	d503201f 	nop
  4517ac:	d503201f 	nop
  4517b0:	d503245f 	bti	c
  4517b4:	d0000210 	adrp	x16, 493000 <.got+0x24d0>
  4517b8:	39757210 	ldrb	w16, [x16, #3420]
  4517bc:	34000070 	cbz	w16, 4517c8 <fgetc+0x3e3b8>
  4517c0:	88e07c41 	casa	w0, w1, [x2]
  4517c4:	d65f03c0 	ret
  4517c8:	2a0003f0 	mov	w16, w0
  4517cc:	885ffc40 	ldaxr	w0, [x2]
  4517d0:	6b10001f 	cmp	w0, w16
  4517d4:	54000061 	b.ne	4517e0 <fgetc+0x3e3d0>  // b.any
  4517d8:	88117c41 	stxr	w17, w1, [x2]
  4517dc:	35ffff91 	cbnz	w17, 4517cc <fgetc+0x3e3bc>
  4517e0:	d65f03c0 	ret
  4517e4:	d503201f 	nop
  4517e8:	d503201f 	nop
  4517ec:	d503201f 	nop
  4517f0:	d503245f 	bti	c
  4517f4:	d0000210 	adrp	x16, 493000 <.got+0x24d0>
  4517f8:	39757210 	ldrb	w16, [x16, #3420]
  4517fc:	34000070 	cbz	w16, 451808 <fgetc+0x3e3f8>
  451800:	c8e07c41 	casa	x0, x1, [x2]
  451804:	d65f03c0 	ret
  451808:	aa0003f0 	mov	x16, x0
  45180c:	c85ffc40 	ldaxr	x0, [x2]
  451810:	eb10001f 	cmp	x0, x16
  451814:	54000061 	b.ne	451820 <fgetc+0x3e410>  // b.any
  451818:	c8117c41 	stxr	w17, x1, [x2]
  45181c:	35ffff91 	cbnz	w17, 45180c <fgetc+0x3e3fc>
  451820:	d65f03c0 	ret
  451824:	d503201f 	nop
  451828:	d503201f 	nop
  45182c:	d503201f 	nop
  451830:	d503245f 	bti	c
  451834:	d0000210 	adrp	x16, 493000 <.got+0x24d0>
  451838:	39757210 	ldrb	w16, [x16, #3420]
  45183c:	34000070 	cbz	w16, 451848 <fgetc+0x3e438>
  451840:	c8a0fc41 	casl	x0, x1, [x2]
  451844:	d65f03c0 	ret
  451848:	aa0003f0 	mov	x16, x0
  45184c:	c85f7c40 	ldxr	x0, [x2]
  451850:	eb10001f 	cmp	x0, x16
  451854:	54000061 	b.ne	451860 <fgetc+0x3e450>  // b.any
  451858:	c811fc41 	stlxr	w17, x1, [x2]
  45185c:	35ffff91 	cbnz	w17, 45184c <fgetc+0x3e43c>
  451860:	d65f03c0 	ret
  451864:	d503201f 	nop
  451868:	d503201f 	nop
  45186c:	d503201f 	nop
  451870:	d503245f 	bti	c
  451874:	d0000210 	adrp	x16, 493000 <.got+0x24d0>
  451878:	39757210 	ldrb	w16, [x16, #3420]
  45187c:	34000070 	cbz	w16, 451888 <fgetc+0x3e478>
  451880:	b8a08020 	swpa	w0, w0, [x1]
  451884:	d65f03c0 	ret
  451888:	2a0003f0 	mov	w16, w0
  45188c:	885ffc20 	ldaxr	w0, [x1]
  451890:	88117c30 	stxr	w17, w16, [x1]
  451894:	35ffffd1 	cbnz	w17, 45188c <fgetc+0x3e47c>
  451898:	d65f03c0 	ret
  45189c:	d503201f 	nop
  4518a0:	d503245f 	bti	c
  4518a4:	d0000210 	adrp	x16, 493000 <.got+0x24d0>
  4518a8:	39757210 	ldrb	w16, [x16, #3420]
  4518ac:	34000070 	cbz	w16, 4518b8 <fgetc+0x3e4a8>
  4518b0:	b8a00020 	ldadda	w0, w0, [x1]
  4518b4:	d65f03c0 	ret
  4518b8:	2a0003f0 	mov	w16, w0
  4518bc:	885ffc20 	ldaxr	w0, [x1]
  4518c0:	0b100011 	add	w17, w0, w16
  4518c4:	880f7c31 	stxr	w15, w17, [x1]
  4518c8:	35ffffaf 	cbnz	w15, 4518bc <fgetc+0x3e4ac>
  4518cc:	d65f03c0 	ret
  4518d0:	d503245f 	bti	c
  4518d4:	d0000210 	adrp	x16, 493000 <.got+0x24d0>
  4518d8:	39757210 	ldrb	w16, [x16, #3420]
  4518dc:	34000070 	cbz	w16, 4518e8 <fgetc+0x3e4d8>
  4518e0:	f8a08020 	swpa	x0, x0, [x1]
  4518e4:	d65f03c0 	ret
  4518e8:	aa0003f0 	mov	x16, x0
  4518ec:	c85ffc20 	ldaxr	x0, [x1]
  4518f0:	c8117c30 	stxr	w17, x16, [x1]
  4518f4:	35ffffd1 	cbnz	w17, 4518ec <fgetc+0x3e4dc>
  4518f8:	d65f03c0 	ret
  4518fc:	d503201f 	nop
  451900:	d503245f 	bti	c
  451904:	d0000210 	adrp	x16, 493000 <.got+0x24d0>
  451908:	39757210 	ldrb	w16, [x16, #3420]
  45190c:	34000070 	cbz	w16, 451918 <fgetc+0x3e508>
  451910:	f8a00020 	ldadda	x0, x0, [x1]
  451914:	d65f03c0 	ret
  451918:	aa0003f0 	mov	x16, x0
  45191c:	c85ffc20 	ldaxr	x0, [x1]
  451920:	8b100011 	add	x17, x0, x16
  451924:	c80f7c31 	stxr	w15, x17, [x1]
  451928:	35ffffaf 	cbnz	w15, 45191c <fgetc+0x3e50c>
  45192c:	d65f03c0 	ret
  451930:	d503245f 	bti	c
  451934:	d0000210 	adrp	x16, 493000 <.got+0x24d0>
  451938:	39757210 	ldrb	w16, [x16, #3420]
  45193c:	34000070 	cbz	w16, 451948 <fgetc+0x3e538>
  451940:	b8608020 	swpl	w0, w0, [x1]
  451944:	d65f03c0 	ret
  451948:	2a0003f0 	mov	w16, w0
  45194c:	885f7c20 	ldxr	w0, [x1]
  451950:	8811fc30 	stlxr	w17, w16, [x1]
  451954:	35ffffd1 	cbnz	w17, 45194c <fgetc+0x3e53c>
  451958:	d65f03c0 	ret
--
  4519b8:	f10000df 	cmp	x6, #0x0
  4519bc:	1a9f17e0 	cset	w0, eq  // eq = none
  4519c0:	b5000227 	cbnz	x7, 451a04 <fgetc+0x3e5f4>
  4519c4:	aa090163 	orr	x3, x11, x9
  4519c8:	b50001e3 	cbnz	x3, 451a04 <fgetc+0x3e5f4>
  4519cc:	52800000 	mov	w0, #0x0                   	// #0
  4519d0:	b50002e6 	cbnz	x6, 451a2c <fgetc+0x3e61c>
  4519d4:	a8c37bfd 	ldp	x29, x30, [sp], #48
  4519d8:	d65f03c0 	ret
--
  4519f4:	b5000184 	cbnz	x4, 451a24 <fgetc+0x3e614>
  4519f8:	aa060146 	orr	x6, x10, x6
  4519fc:	f10000df 	cmp	x6, #0x0
  451a00:	1a9f17e0 	cset	w0, eq  // eq = none
  451a04:	34000100 	cbz	w0, 451a24 <fgetc+0x3e614>
  451a08:	f100003f 	cmp	x1, #0x0
  451a0c:	5a9f1000 	csinv	w0, w0, wzr, ne  // ne = any
  451a10:	a8c37bfd 	ldp	x29, x30, [sp], #48
  451a14:	d65f03c0 	ret
--
  451a1c:	aa030163 	orr	x3, x11, x3
  451a20:	b4000063 	cbz	x3, 451a2c <fgetc+0x3e61c>
  451a24:	eb01005f 	cmp	x2, x1
  451a28:	54000160 	b.eq	451a54 <fgetc+0x3e644>  // b.none
  451a2c:	f100005f 	cmp	x2, #0x0
  451a30:	12800000 	mov	w0, #0xffffffff            	// #-1
  451a34:	5a801400 	cneg	w0, w0, eq  // eq = none
  451a38:	a8c37bfd 	ldp	x29, x30, [sp], #48
  451a3c:	d65f03c0 	ret
  451a40:	52800020 	mov	w0, #0x1                   	// #1
  451a44:	9400004b 	bl	451b70 <fgetc+0x3e760>
  451a48:	52800040 	mov	w0, #0x2                   	// #2
  451a4c:	a8c37bfd 	ldp	x29, x30, [sp], #48
  451a50:	d65f03c0 	ret
--
  451ad4:	eb0100bf 	cmp	x5, x1
  451ad8:	d370f801 	ubfx	x1, x0, #48, #15
  451adc:	540000e0 	b.eq	451af8 <fgetc+0x3e6e8>  // b.none
  451ae0:	d28fffe6 	mov	x6, #0x7fff                	// #32767
  451ae4:	52800000 	mov	w0, #0x0                   	// #0
  451ae8:	eb06003f 	cmp	x1, x6
  451aec:	54000180 	b.eq	451b1c <fgetc+0x3e70c>  // b.none
  451af0:	a8c37bfd 	ldp	x29, x30, [sp], #48
  451af4:	d65f03c0 	ret
  451af8:	aa020080 	orr	x0, x4, x2
  451afc:	b4ffff20 	cbz	x0, 451ae0 <fgetc+0x3e6d0>
  451b00:	f251005f 	tst	x2, #0x800000000000
  451b04:	540001c1 	b.ne	451b3c <fgetc+0x3e72c>  // b.any
  451b08:	52800020 	mov	w0, #0x1                   	// #1
  451b0c:	94000019 	bl	451b70 <fgetc+0x3e760>
  451b10:	52800020 	mov	w0, #0x1                   	// #1
  451b14:	a8c37bfd 	ldp	x29, x30, [sp], #48
  451b18:	d65f03c0 	ret
--
  451bbc:	1e210820 	fmul	s0, s1, s1
  451bc0:	d53b4421 	mrs	x1, fpsr
  451bc4:	362000c0 	tbz	w0, #4, 451bdc <fgetc+0x3e7cc>
  451bc8:	12b01000 	mov	w0, #0x7f7fffff            	// #2139095039
  451bcc:	1e2e1002 	fmov	s2, #1.000000000000000000e+00
  451bd0:	1e270001 	fmov	s1, w0
  451bd4:	1e223820 	fsub	s0, s1, s2
  451bd8:	d53b4420 	mrs	x0, fpsr
  451bdc:	d65f03c0 	ret
--
  451c00:	54000920 	b.eq	451d24 <fgetc+0x3e914>  // b.none
  451c04:	540003e9 	b.ls	451c80 <fgetc+0x3e870>  // b.plast
  451c08:	7100309f 	cmp	w4, #0xc
  451c0c:	54000941 	b.ne	451d34 <fgetc+0x3e924>  // b.any
  451c10:	aa0203e0 	mov	x0, x2
  451c14:	f8408404 	ldr	x4, [x0], #8
  451c18:	b5000644 	cbnz	x4, 451ce0 <fgetc+0x3e8d0>
  451c1c:	f9000064 	str	x4, [x3]
  451c20:	d65f03c0 	ret
--
  451cdc:	d503201f 	nop
  451ce0:	121c08a6 	and	w6, w5, #0x70
  451ce4:	710040df 	cmp	w6, #0x10
  451ce8:	9a810041 	csel	x1, x2, x1, eq  // eq = none
  451cec:	8b010084 	add	x4, x4, x1
  451cf0:	363ff965 	tbz	w5, #7, 451c1c <fgetc+0x3e80c>
  451cf4:	f9400084 	ldr	x4, [x4]
  451cf8:	f9000064 	str	x4, [x3]
  451cfc:	d65f03c0 	ret
  451d00:	91001c40 	add	x0, x2, #0x7
  451d04:	927df000 	and	x0, x0, #0xfffffffffffffff8
  451d08:	f8408404 	ldr	x4, [x0], #8
  451d0c:	f9000064 	str	x4, [x3]
  451d10:	d65f03c0 	ret
--
  451d48:	54000260 	b.eq	451d94 <fgetc+0x3e984>  // b.none
  451d4c:	121c0802 	and	w2, w0, #0x70
  451d50:	7100c05f 	cmp	w2, #0x30
  451d54:	540002c0 	b.eq	451dac <fgetc+0x3e99c>  // b.none
  451d58:	540000a8 	b.hi	451d6c <fgetc+0x3e95c>  // b.pmore
  451d5c:	7100805f 	cmp	w2, #0x20
  451d60:	540000e1 	b.ne	451d7c <fgetc+0x3e96c>  // b.any
  451d64:	f9419420 	ldr	x0, [x1, #808]
  451d68:	d65f03c0 	ret
  451d6c:	7101005f 	cmp	w2, #0x40
  451d70:	54000161 	b.ne	451d9c <fgetc+0x3e98c>  // b.any
  451d74:	f9419c20 	ldr	x0, [x1, #824]
  451d78:	d65f03c0 	ret
  451d7c:	54000068 	b.hi	451d88 <fgetc+0x3e978>  // b.pmore
  451d80:	721b041f 	tst	w0, #0x60
  451d84:	54000080 	b.eq	451d94 <fgetc+0x3e984>  // b.none
  451d88:	a9bf7bfd 	stp	x29, x30, [sp, #-16]!
  451d8c:	910003fd 	mov	x29, sp
  451d90:	97feb96c 	bl	400340 <.plt+0xa0>
  451d94:	d2800000 	mov	x0, #0x0                   	// #0
  451d98:	d65f03c0 	ret
  451d9c:	7101405f 	cmp	w2, #0x50
  451da0:	d2800000 	mov	x0, #0x0                   	// #0
  451da4:	54ffff21 	b.ne	451d88 <fgetc+0x3e978>  // b.any
  451da8:	d65f03c0 	ret
  451dac:	f9419820 	ldr	x0, [x1, #816]
  451db0:	d65f03c0 	ret
--
  451ee4:	54fff9e3 	b.cc	451e20 <fgetc+0x3ea10>  // b.lo, b.ul, b.last
  451ee8:	910003bf 	mov	sp, x29
  451eec:	a94153f3 	ldp	x19, x20, [sp, #16]
  451ef0:	a9425bf5 	ldp	x21, x22, [sp, #32]
  451ef4:	a94363f7 	ldp	x23, x24, [sp, #48]
  451ef8:	a9446bf9 	ldp	x25, x26, [sp, #64]
  451efc:	a94573fb 	ldp	x27, x28, [sp, #80]
  451f00:	a8c77bfd 	ldp	x29, x30, [sp], #112
  451f04:	d65f03c0 	ret
--
  452530:	38401662 	ldrb	w2, [x19], #1
  452534:	92401840 	and	x0, x2, #0x7f
  452538:	9ac12000 	lsl	x0, x0, x1
  45253c:	11001c21 	add	w1, w1, #0x7
  452540:	aa000063 	orr	x3, x3, x0
  452544:	373fff62 	tbnz	w2, #7, 452530 <fgetc+0x3f120>
  452548:	8b030273 	add	x19, x19, x3
  45254c:	17fffe5e 	b	451ec4 <fgetc+0x3eab4>
  452550:	d65f03c0 	ret
--
  45269c:	3900e420 	strb	w0, [x1, #57]
  4526a0:	3900e820 	strb	w0, [x1, #58]
  4526a4:	3900ec20 	strb	w0, [x1, #59]
  4526a8:	3900f020 	strb	w0, [x1, #60]
  4526ac:	3900f420 	strb	w0, [x1, #61]
  4526b0:	3900f820 	strb	w0, [x1, #62]
  4526b4:	3900fc20 	strb	w0, [x1, #63]
  4526b8:	39018020 	strb	w0, [x1, #96]
  4526bc:	d65f03c0 	ret
--
  452914:	97fffd29 	bl	451db8 <fgetc+0x3e9a8>
  452918:	a9425bf5 	ldp	x21, x22, [sp, #32]
  45291c:	52800000 	mov	w0, #0x0                   	// #0
  452920:	a94363f7 	ldp	x23, x24, [sp, #48]
  452924:	a9446bf9 	ldp	x25, x26, [sp, #64]
  452928:	a94573fb 	ldp	x27, x28, [sp, #80]
  45292c:	a94153f3 	ldp	x19, x20, [sp, #16]
  452930:	a8c77bfd 	ldp	x29, x30, [sp], #112
  452934:	d65f03c0 	ret
--
  452a50:	f94037e1 	ldr	x1, [sp, #104]
  452a54:	aa0003f7 	mov	x23, x0
  452a58:	f9019281 	str	x1, [x20, #800]
  452a5c:	17ffffa8 	b	4528fc <fgetc+0x3f4ec>
  452a60:	a9425bf5 	ldp	x21, x22, [sp, #32]
  452a64:	528000a0 	mov	w0, #0x5                   	// #5
  452a68:	a94153f3 	ldp	x19, x20, [sp, #16]
  452a6c:	a8c77bfd 	ldp	x29, x30, [sp], #112
  452a70:	d65f03c0 	ret
--
  452a78:	b5fff018 	cbnz	x24, 452878 <fgetc+0x3f468>
  452a7c:	a9446bf9 	ldp	x25, x26, [sp, #64]
  452a80:	a94573fb 	ldp	x27, x28, [sp, #80]
  452a84:	52800060 	mov	w0, #0x3                   	// #3
  452a88:	a94153f3 	ldp	x19, x20, [sp, #16]
  452a8c:	a9425bf5 	ldp	x21, x22, [sp, #32]
  452a90:	a94363f7 	ldp	x23, x24, [sp, #48]
  452a94:	a8c77bfd 	ldp	x29, x30, [sp], #112
  452a98:	d65f03c0 	ret
--
  452ccc:	35000120 	cbnz	w0, 452cf0 <fgetc+0x3f8e0>
  452cd0:	f9407ea1 	ldr	x1, [x21, #248]
  452cd4:	d2800000 	mov	x0, #0x0                   	// #0
  452cd8:	b40002e1 	cbz	x1, 452d34 <fgetc+0x3f924>
  452cdc:	a94153f3 	ldp	x19, x20, [sp, #16]
  452ce0:	a9425bf5 	ldp	x21, x22, [sp, #32]
  452ce4:	a94363f7 	ldp	x23, x24, [sp, #48]
  452ce8:	a8c57bfd 	ldp	x29, x30, [sp], #80
  452cec:	d65f03c0 	ret
  452cf0:	d2800000 	mov	x0, #0x0                   	// #0
  452cf4:	a94153f3 	ldp	x19, x20, [sp, #16]
  452cf8:	a9425bf5 	ldp	x21, x22, [sp, #32]
  452cfc:	a94363f7 	ldp	x23, x24, [sp, #48]
  452d00:	a8c57bfd 	ldp	x29, x30, [sp], #80
  452d04:	d65f03c0 	ret
--
  452ea0:	910183e0 	add	x0, sp, #0x60
  452ea4:	a9407bfd 	ldp	x29, x30, [sp]
  452ea8:	f874d800 	ldr	x0, [x0, w20, sxtw #3]
  452eac:	a94153f3 	ldp	x19, x20, [sp, #16]
  452eb0:	a9425bf5 	ldp	x21, x22, [sp, #32]
  452eb4:	a94363f7 	ldp	x23, x24, [sp, #48]
  452eb8:	a9446bf9 	ldp	x25, x26, [sp, #64]
  452ebc:	910983ff 	add	sp, sp, #0x260
  452ec0:	d65f03c0 	ret
--
  4531d0:	93407c00 	sxtw	x0, w0
  4531d4:	17ffff2b 	b	452e80 <fgetc+0x3fa70>
  4531d8:	04e0e3e0 	cntd	x0
  4531dc:	93407c00 	sxtw	x0, w0
  4531e0:	17ffff20 	b	452e60 <fgetc+0x3fa50>
  4531e4:	aa0303e0 	mov	x0, x3
  4531e8:	a9407bfd 	ldp	x29, x30, [sp]
  4531ec:	910983ff 	add	sp, sp, #0x260
  4531f0:	d65f03c0 	ret
--
  4536a4:	f901a360 	str	x0, [x27, #832]
  4536a8:	9242f800 	and	x0, x0, #0xdfffffffffffffff
  4536ac:	f9411062 	ldr	x2, [x3, #544]
  4536b0:	f240005f 	tst	x2, #0x1
  4536b4:	9a810000 	csel	x0, x0, x1, eq  // eq = none
  4536b8:	f901a360 	str	x0, [x27, #832]
  4536bc:	a94573fb 	ldp	x27, x28, [sp, #80]
  4536c0:	911103ff 	add	sp, sp, #0x440
  4536c4:	d65f03c0 	ret
--
  453908:	b90693e2 	str	w2, [sp, #1680]
  45390c:	97fffef9 	bl	4534f0 <fgetc+0x400e0>
  453910:	a9407bfd 	ldp	x29, x30, [sp]
  453914:	f9401bf7 	ldr	x23, [sp, #48]
  453918:	f9018e75 	str	x21, [x19, #792]
  45391c:	a94153f3 	ldp	x19, x20, [sp, #16]
  453920:	a9425bf5 	ldp	x21, x22, [sp, #32]
  453924:	911b43ff 	add	sp, sp, #0x6d0
  453928:	d65f03c0 	ret
--
  453aa8:	f9433661 	ldr	x1, [x19, #1640]
  453aac:	8b011260 	add	x0, x19, x1, lsl #4
  453ab0:	b9400800 	ldr	w0, [x0, #8]
  453ab4:	7100181f 	cmp	w0, #0x6
  453ab8:	540000a1 	b.ne	453acc <fgetc+0x406bc>  // b.any
  453abc:	f9018e9f 	str	xzr, [x20, #792]
  453ac0:	a94153f3 	ldp	x19, x20, [sp, #16]
  453ac4:	a8c27bfd 	ldp	x29, x30, [sp], #32
  453ac8:	d65f03c0 	ret
--
  453b0c:	f9400231 	ldr	x17, [x17]
  453b10:	f9411260 	ldr	x0, [x19, #544]
  453b14:	36000060 	tbz	w0, #0, 453b20 <fgetc+0x40710>
  453b18:	f9418a90 	ldr	x16, [x20, #784]
  453b1c:	d503219f 	autia1716
  453b20:	f9018e91 	str	x17, [x20, #792]
  453b24:	a94153f3 	ldp	x19, x20, [sp, #16]
  453b28:	a8c27bfd 	ldp	x29, x30, [sp], #32
  453b2c:	d65f03c0 	ret
--
  453bdc:	97ffffad 	bl	453a90 <fgetc+0x40680>
  453be0:	17ffffe4 	b	453b70 <fgetc+0x40760>
  453be4:	52800040 	mov	w0, #0x2                   	// #2
  453be8:	a9407bfd 	ldp	x29, x30, [sp]
  453bec:	a94153f3 	ldp	x19, x20, [sp, #16]
  453bf0:	a9425bf5 	ldp	x21, x22, [sp, #32]
  453bf4:	a94363f7 	ldp	x23, x24, [sp, #48]
  453bf8:	911b03ff 	add	sp, sp, #0x6c0
  453bfc:	d65f03c0 	ret
  453c00:	f9000317 	str	x23, [x24]
  453c04:	a9407bfd 	ldp	x29, x30, [sp]
  453c08:	a94153f3 	ldp	x19, x20, [sp, #16]
  453c0c:	a9425bf5 	ldp	x21, x22, [sp, #32]
  453c10:	a94363f7 	ldp	x23, x24, [sp, #48]
  453c14:	911b03ff 	add	sp, sp, #0x6c0
  453c18:	d65f03c0 	ret
--
  453cf4:	52800053 	mov	w19, #0x2                   	// #2
  453cf8:	2a1303e0 	mov	w0, w19
  453cfc:	a9407bfd 	ldp	x29, x30, [sp]
  453d00:	a94153f3 	ldp	x19, x20, [sp, #16]
  453d04:	a9425bf5 	ldp	x21, x22, [sp, #32]
  453d08:	a94363f7 	ldp	x23, x24, [sp, #48]
  453d0c:	a9446bf9 	ldp	x25, x26, [sp, #64]
  453d10:	911b43ff 	add	sp, sp, #0x6d0
  453d14:	d65f03c0 	ret
  453d18:	f9000357 	str	x23, [x26]
  453d1c:	2a1303e0 	mov	w0, w19
  453d20:	a9407bfd 	ldp	x29, x30, [sp]
  453d24:	a94153f3 	ldp	x19, x20, [sp, #16]
  453d28:	a9425bf5 	ldp	x21, x22, [sp, #32]
  453d2c:	a94363f7 	ldp	x23, x24, [sp, #48]
  453d30:	a9446bf9 	ldp	x25, x26, [sp, #64]
  453d34:	911b43ff 	add	sp, sp, #0x6d0
  453d38:	d65f03c0 	ret
--
  453d64:	7100b83f 	cmp	w1, #0x2e
  453d68:	54000100 	b.eq	453d88 <fgetc+0x40978>  // b.none
  453d6c:	90000200 	adrp	x0, 493000 <.got+0x24d0>
  453d70:	91358000 	add	x0, x0, #0xd60
  453d74:	3861c800 	ldrb	w0, [x0, w1, sxtw]
  453d78:	7100201f 	cmp	w0, #0x8
  453d7c:	54000101 	b.ne	453d9c <fgetc+0x4098c>  // b.any
  453d80:	f9400040 	ldr	x0, [x2]
  453d84:	d65f03c0 	ret
  453d88:	04e0e3e0 	cntd	x0
  453d8c:	93407c00 	sxtw	x0, w0
  453d90:	d65f03c0 	ret
  453d94:	aa0203e0 	mov	x0, x2
  453d98:	d65f03c0 	ret
  453d9c:	a9bf7bfd 	stp	x29, x30, [sp, #-16]!
  453da0:	910003fd 	mov	x29, sp
  453da4:	97feb167 	bl	400340 <.plt+0xa0>
  453da8:	f9418800 	ldr	x0, [x0, #784]
  453dac:	d65f03c0 	ret
--
  453dcc:	b6f00085 	tbz	x5, #62, 453ddc <fgetc+0x409cc>
  453dd0:	8b040003 	add	x3, x0, x4
  453dd4:	394d6063 	ldrb	w3, [x3, #856]
  453dd8:	350000c3 	cbnz	w3, 453df0 <fgetc+0x409e0>
  453ddc:	7100203f 	cmp	w1, #0x8
  453de0:	f8647800 	ldr	x0, [x0, x4, lsl #3]
  453de4:	540000a1 	b.ne	453df8 <fgetc+0x409e8>  // b.any
  453de8:	f9000002 	str	x2, [x0]
  453dec:	d65f03c0 	ret
  453df0:	f8247802 	str	x2, [x0, x4, lsl #3]
  453df4:	d65f03c0 	ret
  453df8:	a9bf7bfd 	stp	x29, x30, [sp, #-16]!
  453dfc:	910003fd 	mov	x29, sp
  453e00:	97feb150 	bl	400340 <.plt+0xa0>
  453e04:	d503201f 	nop
  453e08:	f9418c00 	ldr	x0, [x0, #792]
  453e0c:	d65f03c0 	ret
  453e10:	f941a002 	ldr	x2, [x0, #832]
  453e14:	f9418c00 	ldr	x0, [x0, #792]
  453e18:	d37ffc42 	lsr	x2, x2, #63
  453e1c:	b9000022 	str	w2, [x1]
  453e20:	d65f03c0 	ret
  453e24:	d503201f 	nop
  453e28:	f9018c01 	str	x1, [x0, #792]
  453e2c:	d65f03c0 	ret
  453e30:	f9419000 	ldr	x0, [x0, #800]
  453e34:	d65f03c0 	ret
  453e38:	f9419c00 	ldr	x0, [x0, #824]
  453e3c:	d65f03c0 	ret
--
  453e44:	d1000400 	sub	x0, x0, #0x1
  453e48:	910003fd 	mov	x29, sp
  453e4c:	910063e1 	add	x1, sp, #0x18
  453e50:	940007dc 	bl	455dc0 <fgetc+0x429b0>
  453e54:	f94017e1 	ldr	x1, [sp, #40]
  453e58:	f100001f 	cmp	x0, #0x0
  453e5c:	a8c37bfd 	ldp	x29, x30, [sp], #48
  453e60:	9a801020 	csel	x0, x1, x0, ne  // ne = any
  453e64:	d65f03c0 	ret
  453e68:	f9419800 	ldr	x0, [x0, #816]
  453e6c:	d65f03c0 	ret
  453e70:	f9419400 	ldr	x0, [x0, #808]
  453e74:	d65f03c0 	ret
--
  453f4c:	f9452fe1 	ldr	x1, [sp, #2648]
  453f50:	79066681 	strh	w1, [x20, #818]
  453f54:	f94537e2 	ldr	x2, [sp, #2664]
  453f58:	f9000682 	str	x2, [x20, #8]
  453f5c:	a9407bfd 	ldp	x29, x30, [sp]
  453f60:	a94153f3 	ldp	x19, x20, [sp, #16]
  453f64:	f94013f5 	ldr	x21, [sp, #32]
  453f68:	9129c3ff 	add	sp, sp, #0xa70
  453f6c:	d65f03c0 	ret
  453f70:	d2800000 	mov	x0, #0x0                   	// #0
  453f74:	a9407bfd 	ldp	x29, x30, [sp]
  453f78:	a94153f3 	ldp	x19, x20, [sp, #16]
  453f7c:	f94013f5 	ldr	x21, [sp, #32]
  453f80:	9129c3ff 	add	sp, sp, #0xa70
  453f84:	d65f03c0 	ret
  453f88:	d65f03c0 	ret
--
  454078:	a9466bf9 	ldp	x25, x26, [sp, #96]
  45407c:	a94773fb 	ldp	x27, x28, [sp, #112]
  454080:	6d4827e8 	ldp	d8, d9, [sp, #128]
  454084:	6d492fea 	ldp	d10, d11, [sp, #144]
  454088:	6d4a37ec 	ldp	d12, d13, [sp, #160]
  45408c:	6d4b3fee 	ldp	d14, d15, [sp, #176]
  454090:	913b03ff 	add	sp, sp, #0xec0
  454094:	8b2463ff 	add	sp, sp, x4
  454098:	d65f03c0 	ret
--
  4541b0:	a9466bf9 	ldp	x25, x26, [sp, #96]
  4541b4:	a94773fb 	ldp	x27, x28, [sp, #112]
  4541b8:	6d4827e8 	ldp	d8, d9, [sp, #128]
  4541bc:	6d492fea 	ldp	d10, d11, [sp, #144]
  4541c0:	6d4a37ec 	ldp	d12, d13, [sp, #160]
  4541c4:	6d4b3fee 	ldp	d14, d15, [sp, #176]
  4541c8:	912143ff 	add	sp, sp, #0x850
  4541cc:	8b2463ff 	add	sp, sp, x4
  4541d0:	d65f03c0 	ret
--
  4542b8:	a9466bf9 	ldp	x25, x26, [sp, #96]
  4542bc:	a94773fb 	ldp	x27, x28, [sp, #112]
  4542c0:	6d4827e8 	ldp	d8, d9, [sp, #128]
  4542c4:	6d492fea 	ldp	d10, d11, [sp, #144]
  4542c8:	6d4a37ec 	ldp	d12, d13, [sp, #160]
  4542cc:	6d4b3fee 	ldp	d14, d15, [sp, #176]
  4542d0:	912143ff 	add	sp, sp, #0x850
  4542d4:	8b2463ff 	add	sp, sp, x4
  4542d8:	d65f03c0 	ret
--
  45435c:	a9466bf9 	ldp	x25, x26, [sp, #96]
  454360:	a94773fb 	ldp	x27, x28, [sp, #112]
  454364:	6d4827e8 	ldp	d8, d9, [sp, #128]
  454368:	6d492fea 	ldp	d10, d11, [sp, #144]
  45436c:	6d4a37ec 	ldp	d12, d13, [sp, #160]
  454370:	6d4b3fee 	ldp	d14, d15, [sp, #176]
  454374:	912143ff 	add	sp, sp, #0x850
  454378:	8b2463ff 	add	sp, sp, x4
  45437c:	d65f03c0 	ret
--
  4543e8:	97feafd6 	bl	400340 <.plt+0xa0>
  4543ec:	d503201f 	nop
  4543f0:	f9400402 	ldr	x2, [x0, #8]
  4543f4:	aa0003e1 	mov	x1, x0
  4543f8:	b4000082 	cbz	x2, 454408 <fgetc+0x40ff8>
  4543fc:	aa0203f0 	mov	x16, x2
  454400:	52800020 	mov	w0, #0x1                   	// #1
  454404:	d61f0200 	br	x16
  454408:	d65f03c0 	ret
--
  4544bc:	a94363f7 	ldp	x23, x24, [sp, #48]
  4544c0:	a9446bf9 	ldp	x25, x26, [sp, #64]
  4544c4:	a94573fb 	ldp	x27, x28, [sp, #80]
  4544c8:	6d4627e8 	ldp	d8, d9, [sp, #96]
  4544cc:	6d472fea 	ldp	d10, d11, [sp, #112]
  4544d0:	6d4837ec 	ldp	d12, d13, [sp, #128]
  4544d4:	6d493fee 	ldp	d14, d15, [sp, #144]
  4544d8:	912b83ff 	add	sp, sp, #0xae0
  4544dc:	d65f03c0 	ret
  4544e0:	f9400423 	ldr	x3, [x1, #8]
  4544e4:	52800024 	mov	w4, #0x1                   	// #1
  4544e8:	f9400441 	ldr	x1, [x2, #8]
  4544ec:	eb01007f 	cmp	x3, x1
  4544f0:	5a9f23e0 	csetm	w0, cc  // cc = lo, ul, last
  4544f4:	1a849000 	csel	w0, w0, w4, ls  // ls = plast
  4544f8:	d65f03c0 	ret
--
  4545e0:	d63f0300 	blr	x24
  4545e4:	37fffcc0 	tbnz	w0, #31, 45457c <fgetc+0x4116c>
  4545e8:	a94153f3 	ldp	x19, x20, [sp, #16]
  4545ec:	a94363f7 	ldp	x23, x24, [sp, #48]
  4545f0:	a94573fb 	ldp	x27, x28, [sp, #80]
  4545f4:	a9425bf5 	ldp	x21, x22, [sp, #32]
  4545f8:	a9446bf9 	ldp	x25, x26, [sp, #64]
  4545fc:	a8c77bfd 	ldp	x29, x30, [sp], #112
  454600:	d65f03c0 	ret
--
  4546ac:	52800003 	mov	w3, #0x0                   	// #0
  4546b0:	97ffff94 	bl	454500 <fgetc+0x410f0>
  4546b4:	7100027f 	cmp	w19, #0x0
  4546b8:	54fffe8c 	b.gt	454688 <fgetc+0x41278>
  4546bc:	a94153f3 	ldp	x19, x20, [sp, #16]
  4546c0:	a9425bf5 	ldp	x21, x22, [sp, #32]
  4546c4:	a94363f7 	ldp	x23, x24, [sp, #48]
  4546c8:	a8c57bfd 	ldp	x29, x30, [sp], #80
  4546cc:	d65f03c0 	ret
--
  4546d8:	54000280 	b.eq	454728 <fgetc+0x41318>  // b.none
  4546dc:	12000801 	and	w1, w0, #0x7
  4546e0:	7100083f 	cmp	w1, #0x2
  4546e4:	540001e0 	b.eq	454720 <fgetc+0x41310>  // b.none
  4546e8:	54000169 	b.ls	454714 <fgetc+0x41304>  // b.plast
  4546ec:	71000c3f 	cmp	w1, #0x3
  4546f0:	52800080 	mov	w0, #0x4                   	// #4
  4546f4:	54000041 	b.ne	4546fc <fgetc+0x412ec>  // b.any
  4546f8:	d65f03c0 	ret
  4546fc:	6b00003f 	cmp	w1, w0
  454700:	52800100 	mov	w0, #0x8                   	// #8
  454704:	54ffffa0 	b.eq	4546f8 <fgetc+0x412e8>  // b.none
  454708:	a9bf7bfd 	stp	x29, x30, [sp, #-16]!
  45470c:	910003fd 	mov	x29, sp
  454710:	97feaf0c 	bl	400340 <.plt+0xa0>
  454714:	52800100 	mov	w0, #0x8                   	// #8
  454718:	35ffff81 	cbnz	w1, 454708 <fgetc+0x412f8>
  45471c:	d65f03c0 	ret
  454720:	2a0103e0 	mov	w0, w1
  454724:	d65f03c0 	ret
  454728:	52800000 	mov	w0, #0x0                   	// #0
  45472c:	d65f03c0 	ret
--
  454750:	54000920 	b.eq	454874 <fgetc+0x41464>  // b.none
  454754:	540003e9 	b.ls	4547d0 <fgetc+0x413c0>  // b.plast
  454758:	7100309f 	cmp	w4, #0xc
  45475c:	54000941 	b.ne	454884 <fgetc+0x41474>  // b.any
  454760:	aa0203e0 	mov	x0, x2
  454764:	f8408404 	ldr	x4, [x0], #8
  454768:	b5000644 	cbnz	x4, 454830 <fgetc+0x41420>
  45476c:	f9000064 	str	x4, [x3]
  454770:	d65f03c0 	ret
--
  45482c:	d503201f 	nop
  454830:	121c08a6 	and	w6, w5, #0x70
  454834:	710040df 	cmp	w6, #0x10
  454838:	9a810041 	csel	x1, x2, x1, eq  // eq = none
  45483c:	8b010084 	add	x4, x4, x1
  454840:	363ff965 	tbz	w5, #7, 45476c <fgetc+0x4135c>
  454844:	f9400084 	ldr	x4, [x4]
  454848:	f9000064 	str	x4, [x3]
  45484c:	d65f03c0 	ret
  454850:	91001c40 	add	x0, x2, #0x7
  454854:	927df000 	and	x0, x0, #0xfffffffffffffff8
  454858:	f8408404 	ldr	x4, [x0], #8
  45485c:	f9000064 	str	x4, [x3]
  454860:	d65f03c0 	ret
--
  4548b8:	71000c7f 	cmp	w3, #0x3
  4548bc:	54000668 	b.hi	454988 <fgetc+0x41578>  // b.pmore
  4548c0:	39402680 	ldrb	w0, [x20, #9]
  4548c4:	7101e81f 	cmp	w0, #0x7a
  4548c8:	540000a0 	b.eq	4548dc <fgetc+0x414cc>  // b.none
  4548cc:	52800000 	mov	w0, #0x0                   	// #0
  4548d0:	a94153f3 	ldp	x19, x20, [sp, #16]
  4548d4:	a8c37bfd 	ldp	x29, x30, [sp], #48
  4548d8:	d65f03c0 	ret
--
  45495c:	97ffff75 	bl	454730 <fgetc+0x41320>
  454960:	aa0003e2 	mov	x2, x0
  454964:	38401e60 	ldrb	w0, [x19, #1]!
  454968:	7101481f 	cmp	w0, #0x52
  45496c:	54fffec1 	b.ne	454944 <fgetc+0x41534>  // b.any
  454970:	39400040 	ldrb	w0, [x2]
  454974:	a94153f3 	ldp	x19, x20, [sp, #16]
  454978:	a8c37bfd 	ldp	x29, x30, [sp], #48
  45497c:	d65f03c0 	ret
--
  4549b0:	540001c0 	b.eq	4549e8 <fgetc+0x415d8>  // b.none
  4549b4:	121c0803 	and	w3, w0, #0x70
  4549b8:	7100807f 	cmp	w3, #0x20
  4549bc:	54000220 	b.eq	454a00 <fgetc+0x415f0>  // b.none
  4549c0:	540000a9 	b.ls	4549d4 <fgetc+0x415c4>  // b.plast
  4549c4:	7100c07f 	cmp	w3, #0x30
  4549c8:	54000141 	b.ne	4549f0 <fgetc+0x415e0>  // b.any
  4549cc:	f9400040 	ldr	x0, [x2]
  4549d0:	d65f03c0 	ret
  4549d4:	721b041f 	tst	w0, #0x60
  4549d8:	54000080 	b.eq	4549e8 <fgetc+0x415d8>  // b.none
  4549dc:	a9bf7bfd 	stp	x29, x30, [sp, #-16]!
  4549e0:	910003fd 	mov	x29, sp
  4549e4:	97feae57 	bl	400340 <.plt+0xa0>
  4549e8:	d2800000 	mov	x0, #0x0                   	// #0
  4549ec:	d65f03c0 	ret
  4549f0:	7101407f 	cmp	w3, #0x50
  4549f4:	d2800000 	mov	x0, #0x0                   	// #0
  4549f8:	54ffff21 	b.ne	4549dc <fgetc+0x415cc>  // b.any
  4549fc:	d65f03c0 	ret
  454a00:	f9400020 	ldr	x0, [x1]
  454a04:	d65f03c0 	ret
--
  454a6c:	a94307e2 	ldp	x2, x1, [sp, #48]
  454a70:	52800023 	mov	w3, #0x1                   	// #1
  454a74:	a94153f3 	ldp	x19, x20, [sp, #16]
  454a78:	a9425bf5 	ldp	x21, x22, [sp, #32]
  454a7c:	eb01005f 	cmp	x2, x1
  454a80:	5a9f23e0 	csetm	w0, cc  // cc = lo, ul, last
  454a84:	1a839000 	csel	w0, w0, w3, ls  // ls = plast
  454a88:	a8c47bfd 	ldp	x29, x30, [sp], #64
  454a8c:	d65f03c0 	ret
--
  454b64:	35fffca1 	cbnz	w1, 454af8 <fgetc+0x416e8>
  454b68:	a94573fb 	ldp	x27, x28, [sp, #80]
  454b6c:	d2800000 	mov	x0, #0x0                   	// #0
  454b70:	a94153f3 	ldp	x19, x20, [sp, #16]
  454b74:	a9425bf5 	ldp	x21, x22, [sp, #32]
  454b78:	a94363f7 	ldp	x23, x24, [sp, #48]
  454b7c:	a9446bf9 	ldp	x25, x26, [sp, #64]
  454b80:	a8c87bfd 	ldp	x29, x30, [sp], #128
  454b84:	d65f03c0 	ret
--
  454bec:	54fffb42 	b.cs	454b54 <fgetc+0x41744>  // b.hs, b.nlast
  454bf0:	aa1303e0 	mov	x0, x19
  454bf4:	a94153f3 	ldp	x19, x20, [sp, #16]
  454bf8:	a9425bf5 	ldp	x21, x22, [sp, #32]
  454bfc:	a94363f7 	ldp	x23, x24, [sp, #48]
  454c00:	a9446bf9 	ldp	x25, x26, [sp, #64]
  454c04:	a94573fb 	ldp	x27, x28, [sp, #80]
  454c08:	a8c87bfd 	ldp	x29, x30, [sp], #128
  454c0c:	d65f03c0 	ret
--
  454ca8:	52800023 	mov	w3, #0x1                   	// #1
  454cac:	a94153f3 	ldp	x19, x20, [sp, #16]
  454cb0:	a9425bf5 	ldp	x21, x22, [sp, #32]
  454cb4:	eb01005f 	cmp	x2, x1
  454cb8:	5a9f23e0 	csetm	w0, cc  // cc = lo, ul, last
  454cbc:	1a839000 	csel	w0, w0, w3, ls  // ls = plast
  454cc0:	f9401bf7 	ldr	x23, [sp, #48]
  454cc4:	a8c57bfd 	ldp	x29, x30, [sp], #80
  454cc8:	d65f03c0 	ret
--
  454df4:	35fff920 	cbnz	w0, 454d18 <fgetc+0x41908>
  454df8:	a94153f3 	ldp	x19, x20, [sp, #16]
  454dfc:	a94363f7 	ldp	x23, x24, [sp, #48]
  454e00:	a9446bf9 	ldp	x25, x26, [sp, #64]
  454e04:	a94573fb 	ldp	x27, x28, [sp, #80]
  454e08:	aa1603e0 	mov	x0, x22
  454e0c:	a9425bf5 	ldp	x21, x22, [sp, #32]
  454e10:	a8c77bfd 	ldp	x29, x30, [sp], #112
  454e14:	d65f03c0 	ret
--
  454e24:	92800016 	mov	x22, #0xffffffffffffffff    	// #-1
  454e28:	aa1603e0 	mov	x0, x22
  454e2c:	a94153f3 	ldp	x19, x20, [sp, #16]
  454e30:	a9425bf5 	ldp	x21, x22, [sp, #32]
  454e34:	a94363f7 	ldp	x23, x24, [sp, #48]
  454e38:	a9446bf9 	ldp	x25, x26, [sp, #64]
  454e3c:	a94573fb 	ldp	x27, x28, [sp, #80]
  454e40:	a8c77bfd 	ldp	x29, x30, [sp], #112
  454e44:	d65f03c0 	ret
--
  454f24:	b9400262 	ldr	w2, [x19]
  454f28:	35fffc42 	cbnz	w2, 454eb0 <fgetc+0x41aa0>
  454f2c:	a94363f7 	ldp	x23, x24, [sp, #48]
  454f30:	a94153f3 	ldp	x19, x20, [sp, #16]
  454f34:	a9425bf5 	ldp	x21, x22, [sp, #32]
  454f38:	a9446bf9 	ldp	x25, x26, [sp, #64]
  454f3c:	a94573fb 	ldp	x27, x28, [sp, #80]
  454f40:	a8c77bfd 	ldp	x29, x30, [sp], #112
  454f44:	d65f03c0 	ret
--
  4550a8:	f9400920 	ldr	x0, [x9, #16]
  4550ac:	8b0001b4 	add	x20, x13, x0
  4550b0:	386069a0 	ldrb	w0, [x13, x0]
  4550b4:	7100041f 	cmp	w0, #0x1
  4550b8:	540004e0 	b.eq	455154 <fgetc+0x41d44>  // b.none
  4550bc:	52800020 	mov	w0, #0x1                   	// #1
  4550c0:	a94153f3 	ldp	x19, x20, [sp, #16]
  4550c4:	a8c87bfd 	ldp	x29, x30, [sp], #128
  4550c8:	d65f03c0 	ret
  4550cc:	12800000 	mov	w0, #0xffffffff            	// #-1
  4550d0:	a94153f3 	ldp	x19, x20, [sp, #16]
  4550d4:	a8c87bfd 	ldp	x29, x30, [sp], #128
  4550d8:	d65f03c0 	ret
  4550dc:	aa0303e9 	mov	x9, x3
  4550e0:	17ffffcb 	b	45500c <fgetc+0x41bfc>
  4550e4:	52800000 	mov	w0, #0x0                   	// #0
  4550e8:	a94153f3 	ldp	x19, x20, [sp, #16]
  4550ec:	a8c87bfd 	ldp	x29, x30, [sp], #128
  4550f0:	d65f03c0 	ret
--
  455458:	eb03005f 	cmp	x2, x3
  45545c:	54fffe68 	b.hi	455428 <fgetc+0x42018>  // b.pmore
  455460:	a94573fb 	ldp	x27, x28, [sp, #80]
  455464:	d2800014 	mov	x20, #0x0                   	// #0
  455468:	aa1403e0 	mov	x0, x20
  45546c:	a94153f3 	ldp	x19, x20, [sp, #16]
  455470:	a94363f7 	ldp	x23, x24, [sp, #48]
  455474:	a8ca7bfd 	ldp	x29, x30, [sp], #160
  455478:	d65f03c0 	ret
--
  4555f8:	97fffd26 	bl	454a90 <fgetc+0x41680>
  4555fc:	aa0003f4 	mov	x20, x0
  455600:	b4ffff40 	cbz	x0, 4555e8 <fgetc+0x421d8>
  455604:	aa1403e0 	mov	x0, x20
  455608:	a94153f3 	ldp	x19, x20, [sp, #16]
  45560c:	a9425bf5 	ldp	x21, x22, [sp, #32]
  455610:	a94363f7 	ldp	x23, x24, [sp, #48]
  455614:	a8ca7bfd 	ldp	x29, x30, [sp], #160
  455618:	d65f03c0 	ret
--
  455620:	17ffff91 	b	455464 <fgetc+0x42054>
  455624:	a9425bf5 	ldp	x21, x22, [sp, #32]
  455628:	a9446bf9 	ldp	x25, x26, [sp, #64]
  45562c:	aa1403e0 	mov	x0, x20
  455630:	a94153f3 	ldp	x19, x20, [sp, #16]
  455634:	a94363f7 	ldp	x23, x24, [sp, #48]
  455638:	a94573fb 	ldp	x27, x28, [sp, #80]
  45563c:	a8ca7bfd 	ldp	x29, x30, [sp], #160
  455640:	d65f03c0 	ret
--
  455ac0:	a94153f3 	ldp	x19, x20, [sp, #16]
  455ac4:	91066000 	add	x0, x0, #0x198
  455ac8:	f94013f5 	ldr	x21, [sp, #32]
  455acc:	a8c37bfd 	ldp	x29, x30, [sp], #48
  455ad0:	d503201f 	nop
  455ad4:	a94153f3 	ldp	x19, x20, [sp, #16]
  455ad8:	f94013f5 	ldr	x21, [sp, #32]
  455adc:	a8c37bfd 	ldp	x29, x30, [sp], #48
  455ae0:	d65f03c0 	ret
--
  455ae8:	52800020 	mov	w0, #0x1                   	// #1
  455aec:	b9000020 	str	w0, [x1]
  455af0:	17fffff1 	b	455ab4 <fgetc+0x426a4>
  455af4:	d503201f 	nop
  455af8:	b4000080 	cbz	x0, 455b08 <fgetc+0x426f8>
  455afc:	b9400004 	ldr	w4, [x0]
  455b00:	34000044 	cbz	w4, 455b08 <fgetc+0x426f8>
  455b04:	17ffffd5 	b	455a58 <fgetc+0x42648>
  455b08:	d65f03c0 	ret
  455b0c:	d503201f 	nop
  455b10:	b40000c0 	cbz	x0, 455b28 <fgetc+0x42718>
  455b14:	b9400002 	ldr	w2, [x0]
  455b18:	34000082 	cbz	w2, 455b28 <fgetc+0x42718>
  455b1c:	d2800003 	mov	x3, #0x0                   	// #0
  455b20:	d2800002 	mov	x2, #0x0                   	// #0
  455b24:	17ffffcd 	b	455a58 <fgetc+0x42648>
  455b28:	d65f03c0 	ret
--
  455b30:	a9be7bfd 	stp	x29, x30, [sp, #-32]!
  455b34:	910003fd 	mov	x29, sp
  455b38:	f9000bf3 	str	x19, [sp, #16]
  455b3c:	aa0003f3 	mov	x19, x0
  455b40:	b9400000 	ldr	w0, [x0]
  455b44:	35000080 	cbnz	w0, 455b54 <fgetc+0x42744>
  455b48:	f9400bf3 	ldr	x19, [sp, #16]
  455b4c:	a8c27bfd 	ldp	x29, x30, [sp], #32
  455b50:	d65f03c0 	ret
--
  455be0:	a94153f3 	ldp	x19, x20, [sp, #16]
  455be4:	91066000 	add	x0, x0, #0x198
  455be8:	f94013f5 	ldr	x21, [sp, #32]
  455bec:	a8c37bfd 	ldp	x29, x30, [sp], #48
  455bf0:	d503201f 	nop
  455bf4:	a94153f3 	ldp	x19, x20, [sp, #16]
  455bf8:	f94013f5 	ldr	x21, [sp, #32]
  455bfc:	a8c37bfd 	ldp	x29, x30, [sp], #48
  455c00:	d65f03c0 	ret
--
  455cc8:	54ffff41 	b.ne	455cb0 <fgetc+0x428a0>  // b.any
  455ccc:	f9000041 	str	x1, [x2]
  455cd0:	f945eeb5 	ldr	x21, [x21, #3032]
  455cd4:	b50003d5 	cbnz	x21, 455d4c <fgetc+0x4293c>
  455cd8:	aa1303e0 	mov	x0, x19
  455cdc:	a94153f3 	ldp	x19, x20, [sp, #16]
  455ce0:	a9425bf5 	ldp	x21, x22, [sp, #32]
  455ce4:	a8c37bfd 	ldp	x29, x30, [sp], #48
  455ce8:	d65f03c0 	ret
--
  455d28:	54ffff21 	b.ne	455d0c <fgetc+0x428fc>  // b.any
  455d2c:	f9401660 	ldr	x0, [x19, #40]
  455d30:	f9000040 	str	x0, [x2]
  455d34:	17ffffe7 	b	455cd0 <fgetc+0x428c0>
  455d38:	d2800013 	mov	x19, #0x0                   	// #0
  455d3c:	aa1303e0 	mov	x0, x19
  455d40:	a94153f3 	ldp	x19, x20, [sp, #16]
  455d44:	a8c37bfd 	ldp	x29, x30, [sp], #48
  455d48:	d65f03c0 	ret
  455d4c:	913722c0 	add	x0, x22, #0xdc8
  455d50:	91066000 	add	x0, x0, #0x198
  455d54:	d503201f 	nop
  455d58:	aa1303e0 	mov	x0, x19
  455d5c:	a94153f3 	ldp	x19, x20, [sp, #16]
  455d60:	a9425bf5 	ldp	x21, x22, [sp, #32]
  455d64:	a8c37bfd 	ldp	x29, x30, [sp], #48
  455d68:	d65f03c0 	ret
--
  455d88:	f9000041 	str	x1, [x2]
  455d8c:	97ff1de1 	bl	41d510 <fgetc+0xa100>
  455d90:	17ffffd0 	b	455cd0 <fgetc+0x428c0>
  455d94:	d503201f 	nop
  455d98:	17ffffb2 	b	455c60 <fgetc+0x42850>
  455d9c:	d503201f 	nop
  455da0:	b9400001 	ldr	w1, [x0]
  455da4:	35000041 	cbnz	w1, 455dac <fgetc+0x4299c>
  455da8:	d65f03c0 	ret
--
  455e2c:	f90006c0 	str	x0, [x22, #8]
  455e30:	f94037e0 	ldr	x0, [sp, #104]
  455e34:	f9000ac0 	str	x0, [x22, #16]
  455e38:	aa1503e0 	mov	x0, x21
  455e3c:	a94153f3 	ldp	x19, x20, [sp, #16]
  455e40:	a9425bf5 	ldp	x21, x22, [sp, #32]
  455e44:	a94363f7 	ldp	x23, x24, [sp, #48]
  455e48:	a8c87bfd 	ldp	x29, x30, [sp], #128
  455e4c:	d65f03c0 	ret
--
  455ffc:	721b047f 	tst	w3, #0x60
  456000:	540000c0 	b.eq	456018 <fgetc+0x42c08>  // b.none
  456004:	a9bf7bfd 	stp	x29, x30, [sp, #-16]!
  456008:	910003fd 	mov	x29, sp
  45600c:	97fea8cd 	bl	400340 <.plt+0xa0>
  456010:	7101405f 	cmp	w2, #0x50
  456014:	54ffff81 	b.ne	456004 <fgetc+0x42bf4>  // b.any
  456018:	d2800000 	mov	x0, #0x0                   	// #0
  45601c:	d65f03c0 	ret
--
  456048:	54000920 	b.eq	45616c <fgetc+0x42d5c>  // b.none
  45604c:	540003e9 	b.ls	4560c8 <fgetc+0x42cb8>  // b.plast
  456050:	7100309f 	cmp	w4, #0xc
  456054:	54000941 	b.ne	45617c <fgetc+0x42d6c>  // b.any
  456058:	aa0203e0 	mov	x0, x2
  45605c:	f8408404 	ldr	x4, [x0], #8
  456060:	b5000644 	cbnz	x4, 456128 <fgetc+0x42d18>
  456064:	f9000064 	str	x4, [x3]
  456068:	d65f03c0 	ret
--
  456124:	d503201f 	nop
  456128:	121c08a6 	and	w6, w5, #0x70
  45612c:	710040df 	cmp	w6, #0x10
  456130:	9a810041 	csel	x1, x2, x1, eq  // eq = none
  456134:	8b010084 	add	x4, x4, x1
  456138:	363ff965 	tbz	w5, #7, 456064 <fgetc+0x42c54>
  45613c:	f9400084 	ldr	x4, [x4]
  456140:	f9000064 	str	x4, [x3]
  456144:	d65f03c0 	ret
  456148:	91001c40 	add	x0, x2, #0x7
  45614c:	927df000 	and	x0, x0, #0xfffffffffffffff8
  456150:	f8408404 	ldr	x4, [x0], #8
  456154:	f9000064 	str	x4, [x3]
  456158:	d65f03c0 	ret
--
  456188:	a9b67bfd 	stp	x29, x30, [sp, #-160]!
  45618c:	7100041f 	cmp	w0, #0x1
  456190:	910003fd 	mov	x29, sp
  456194:	b90057ff 	str	wzr, [sp, #84]
  456198:	540000a1 	b.ne	4561ac <fgetc+0x42d9c>  // b.any
  45619c:	370800e1 	tbnz	w1, #1, 4561b8 <fgetc+0x42da8>
  4561a0:	52800100 	mov	w0, #0x8                   	// #8
  4561a4:	a8ca7bfd 	ldp	x29, x30, [sp], #160
  4561a8:	d65f03c0 	ret
  4561ac:	52800060 	mov	w0, #0x3                   	// #3
  4561b0:	a8ca7bfd 	ldp	x29, x30, [sp], #160
  4561b4:	d65f03c0 	ret
--
  456354:	eb15001f 	cmp	x0, x21
  456358:	54000189 	b.ls	456388 <fgetc+0x42f78>  // b.plast
  45635c:	52800100 	mov	w0, #0x8                   	// #8
  456360:	a94153f3 	ldp	x19, x20, [sp, #16]
  456364:	a9425bf5 	ldp	x21, x22, [sp, #32]
  456368:	a94363f7 	ldp	x23, x24, [sp, #48]
  45636c:	a9446bf9 	ldp	x25, x26, [sp, #64]
  456370:	a8ca7bfd 	ldp	x29, x30, [sp], #160
  456374:	d65f03c0 	ret
--
  456444:	f9400041 	ldr	x1, [x2]
  456448:	b5000081 	cbnz	x1, 456458 <fgetc+0x43048>
  45644c:	14000007 	b	456468 <fgetc+0x43058>
  456450:	f8410c41 	ldr	x1, [x2, #16]!
  456454:	b40000a1 	cbz	x1, 456468 <fgetc+0x43058>
  456458:	eb01001f 	cmp	x0, x1
  45645c:	54ffffa1 	b.ne	456450 <fgetc+0x43040>  // b.any
  456460:	f9400440 	ldr	x0, [x2, #8]
  456464:	d65f03c0 	ret
  456468:	d00001c1 	adrp	x1, 490000 <fgetc+0x7cbf0>
  45646c:	f946e021 	ldr	x1, [x1, #3520]
  456470:	d53bd042 	mrs	x2, tpidr_el0
  456474:	52800043 	mov	w3, #0x2                   	// #2
  456478:	d2800000 	mov	x0, #0x0                   	// #0
  45647c:	b8216843 	str	w3, [x2, x1]
  456480:	d65f03c0 	ret
  456484:	d00001c0 	adrp	x0, 490000 <fgetc+0x7cbf0>
  456488:	f947a800 	ldr	x0, [x0, #3920]
  45648c:	f9400000 	ldr	x0, [x0]
  456490:	d65f03c0 	ret
  456494:	d00001c0 	adrp	x0, 490000 <fgetc+0x7cbf0>
  456498:	f946f800 	ldr	x0, [x0, #3568]
  45649c:	f9400000 	ldr	x0, [x0]
  4564a0:	d65f03c0 	ret
--
  4565c0:	d2800001 	mov	x1, #0x0                   	// #0
  4565c4:	54000141 	b.ne	4565ec <fgetc+0x431dc>  // b.any
  4565c8:	2a1303e0 	mov	w0, w19
  4565cc:	a94153f3 	ldp	x19, x20, [sp, #16]
  4565d0:	a9425bf5 	ldp	x21, x22, [sp, #32]
  4565d4:	a94363f7 	ldp	x23, x24, [sp, #48]
  4565d8:	a9446bf9 	ldp	x25, x26, [sp, #64]
  4565dc:	a8ca7bfd 	ldp	x29, x30, [sp], #160
  4565e0:	d65f03c0 	ret
--
  456694:	d503201f 	nop
  456698:	aa1303e0 	mov	x0, x19
  45669c:	f9400273 	ldr	x19, [x19]
  4566a0:	f9000693 	str	x19, [x20, #8]
  4566a4:	97ff1b9b 	bl	41d510 <fgetc+0xa100>
  4566a8:	b5ffff93 	cbnz	x19, 456698 <fgetc+0x43288>
  4566ac:	a94153f3 	ldp	x19, x20, [sp, #16]
  4566b0:	a8c37bfd 	ldp	x29, x30, [sp], #48
  4566b4:	d65f03c0 	ret
--
  4566e0:	f9400e74 	ldr	x20, [x19, #24]
  4566e4:	97ff1b8b 	bl	41d510 <fgetc+0xa100>
  4566e8:	aa1303e0 	mov	x0, x19
  4566ec:	aa1403f3 	mov	x19, x20
  4566f0:	97ff1b88 	bl	41d510 <fgetc+0xa100>
  4566f4:	b5fffef4 	cbnz	x20, 4566d0 <fgetc+0x432c0>
  4566f8:	a94153f3 	ldp	x19, x20, [sp, #16]
  4566fc:	a8c27bfd 	ldp	x29, x30, [sp], #32
  456700:	d65f03c0 	ret
--
  45681c:	d503201f 	nop
  456820:	f9405a60 	ldr	x0, [x19, #176]
  456824:	97ff1b3b 	bl	41d510 <fgetc+0xa100>
  456828:	f9405673 	ldr	x19, [x19, #168]
  45682c:	f9000693 	str	x19, [x20, #8]
  456830:	b5ffff93 	cbnz	x19, 456820 <fgetc+0x43410>
  456834:	a94153f3 	ldp	x19, x20, [sp, #16]
  456838:	a8c27bfd 	ldp	x29, x30, [sp], #32
  45683c:	d65f03c0 	ret
--
  456934:	aa1303e0 	mov	x0, x19
  456938:	f9401673 	ldr	x19, [x19, #40]
  45693c:	39400021 	ldrb	w1, [x1]
  456940:	7100bc3f 	cmp	w1, #0x2f
  456944:	540000a0 	b.eq	456958 <fgetc+0x43548>  // b.none
  456948:	b5ffff53 	cbnz	x19, 456930 <fgetc+0x43520>
  45694c:	f9400bf3 	ldr	x19, [sp, #16]
  456950:	a8c27bfd 	ldp	x29, x30, [sp], #32
  456954:	d65f03c0 	ret
--
  4569a0:	b00001e0 	adrp	x0, 493000 <.got+0x24d0>
  4569a4:	f9455000 	ldr	x0, [x0, #2720]
  4569a8:	b40000a0 	cbz	x0, 4569bc <fgetc+0x435ac>
  4569ac:	a8c17bfd 	ldp	x29, x30, [sp], #16
  4569b0:	90000001 	adrp	x1, 456000 <fgetc+0x42bf0>
  4569b4:	91210021 	add	x1, x1, #0x840
  4569b8:	17ff386c 	b	424b68 <fgetc+0x11758>
  4569bc:	a8c17bfd 	ldp	x29, x30, [sp], #16
  4569c0:	d65f03c0 	ret
--
  4569c8:	d00001c0 	adrp	x0, 490000 <fgetc+0x7cbf0>
  4569cc:	b0000041 	adrp	x1, 45f000 <fgetc+0x4bbf0>
  4569d0:	91110021 	add	x1, x1, #0x440
  4569d4:	f9475000 	ldr	x0, [x0, #3744]
  4569d8:	f9400000 	ldr	x0, [x0]
  4569dc:	f100001f 	cmp	x0, #0x0
  4569e0:	fa411004 	ccmp	x0, x1, #0x4, ne  // ne = any
  4569e4:	54000041 	b.ne	4569ec <fgetc+0x435dc>  // b.any
  4569e8:	d65f03c0 	ret
--
  4569f0:	b00001e0 	adrp	x0, 493000 <.got+0x24d0>
  4569f4:	912ac001 	add	x1, x0, #0xab0
  4569f8:	f9455800 	ldr	x0, [x0, #2736]
  4569fc:	b9400822 	ldr	w2, [x1, #8]
  456a00:	350000a2 	cbnz	w2, 456a14 <fgetc+0x43604>
  456a04:	b4000060 	cbz	x0, 456a10 <fgetc+0x43600>
  456a08:	f9400821 	ldr	x1, [x1, #16]
  456a0c:	17ff3561 	b	423f90 <fgetc+0x10b80>
  456a10:	d65f03c0 	ret
--
  456a54:	910003fd 	mov	x29, sp
  456a58:	f9000bf3 	str	x19, [sp, #16]
  456a5c:	b00001f3 	adrp	x19, 493000 <.got+0x24d0>
  456a60:	f9456660 	ldr	x0, [x19, #2760]
  456a64:	97ff3841 	bl	424b68 <fgetc+0x11758>
  456a68:	f905667f 	str	xzr, [x19, #2760]
  456a6c:	f9400bf3 	ldr	x19, [sp, #16]
  456a70:	a8c27bfd 	ldp	x29, x30, [sp], #32
  456a74:	d65f03c0 	ret
--
  456b40:	97ff1a74 	bl	41d510 <fgetc+0xa100>
  456b44:	aa1303e0 	mov	x0, x19
  456b48:	aa1403f3 	mov	x19, x20
  456b4c:	97ff1a71 	bl	41d510 <fgetc+0xa100>
  456b50:	b5fffeb4 	cbnz	x20, 456b24 <fgetc+0x43714>
  456b54:	a94153f3 	ldp	x19, x20, [sp, #16]
  456b58:	a9425bf5 	ldp	x21, x22, [sp, #32]
  456b5c:	a8c47bfd 	ldp	x29, x30, [sp], #64
  456b60:	d65f03c0 	ret
--
  456eb0:	97ff3438 	bl	423f90 <fgetc+0x10b80>
  456eb4:	aa1403e0 	mov	x0, x20
  456eb8:	97ff1996 	bl	41d510 <fgetc+0xa100>
  456ebc:	b5ffff33 	cbnz	x19, 456ea0 <fgetc+0x43a90>
  456ec0:	a94153f3 	ldp	x19, x20, [sp, #16]
  456ec4:	a9425bf5 	ldp	x21, x22, [sp, #32]
  456ec8:	f9401bf7 	ldr	x23, [sp, #48]
  456ecc:	a8c47bfd 	ldp	x29, x30, [sp], #64
  456ed0:	d65f03c0 	ret
--
  456f0c:	912ee273 	add	x19, x19, #0xbb8
  456f10:	d00001c1 	adrp	x1, 490000 <fgetc+0x7cbf0>
  456f14:	f947e421 	ldr	x1, [x1, #4040]
  456f18:	f9400a60 	ldr	x0, [x19, #16]
  456f1c:	97ff3713 	bl	424b68 <fgetc+0x11758>
  456f20:	f9000a7f 	str	xzr, [x19, #16]
  456f24:	f9400bf3 	ldr	x19, [sp, #16]
  456f28:	a8c27bfd 	ldp	x29, x30, [sp], #32
  456f2c:	d65f03c0 	ret
--
  456f70:	f11fe29f 	cmp	x20, #0x7f8
  456f74:	54fffee1 	b.ne	456f50 <fgetc+0x43b40>  // b.any
  456f78:	a94153f3 	ldp	x19, x20, [sp, #16]
  456f7c:	f94013f5 	ldr	x21, [sp, #32]
  456f80:	a8c37bfd 	ldp	x29, x30, [sp], #48
  456f84:	17ff1963 	b	41d510 <fgetc+0xa100>
  456f88:	f94013f5 	ldr	x21, [sp, #32]
  456f8c:	a8c37bfd 	ldp	x29, x30, [sp], #48
  456f90:	d65f03c0 	ret
--
  456fe4:	91000421 	add	x1, x1, #0x1
  456fe8:	eb03003f 	cmp	x1, x3
  456fec:	f8626882 	ldr	x2, [x4, x2]
  456ff0:	b4ffff62 	cbz	x2, 456fdc <fgetc+0x43bcc>
  456ff4:	52800014 	mov	w20, #0x0                   	// #0
  456ff8:	2a1403e0 	mov	w0, w20
  456ffc:	a94153f3 	ldp	x19, x20, [sp, #16]
  457000:	a8c27bfd 	ldp	x29, x30, [sp], #32
  457004:	d65f03c0 	ret
  457008:	97ff1942 	bl	41d510 <fgetc+0xa100>
  45700c:	f900027f 	str	xzr, [x19]
  457010:	2a1403e0 	mov	w0, w20
  457014:	a94153f3 	ldp	x19, x20, [sp, #16]
  457018:	a8c27bfd 	ldp	x29, x30, [sp], #32
  45701c:	d65f03c0 	ret
--
  457150:	17ffffe4 	b	4570e0 <fgetc+0x43cd0>

Disassembly of section .fini:

0000000000457154 <.fini>:
  457154:	a9bf7bfd 	stp	x29, x30, [sp, #-16]!
  457158:	910003fd 	mov	x29, sp
  45715c:	a8c17bfd 	ldp	x29, x30, [sp], #16
  457160:	d65f03c0 	ret
